(dp0
S'parameterArray'
p1
(lp2
(dp3
S'timing_ISI'
p4
F0.03
sS'mapper_max_index'
p5
I63
sS'tasks'
p6
(lp7
I1
aI2
asS'response_buttons_orientation'
p8
(lp9
S'b'
p10
aS'y'
p11
asS'stimulus_col_min'
p12
I0
sS'stimulus_col_baselum'
p13
I55
sS'mapper_mapper_redraws'
p14
F20.0
sS'quest_h_index'
p15
I2
sS'timing_stimcue_interval'
p16
F0.5
sS'timing_stim_2_Duration'
p17
F0.15
sS'timing_stim_1_Duration'
p18
F0.15
sS'quest_r_index'
p19
I0
sS'quest_stepsize'
p20
(lp21
I15
aI15
aI2
aI2
asS'quest_g_index'
p22
I1
sS'response_buttons_color'
p23
(lp24
S'w'
p25
aS'e'
p26
asS'timing_ITI_duration'
p27
(F0.5
F1.5
tp28
sS'trial_start'
p29
F48.986674070358276
sS'TR'
p30
F0.945
sS'quest_v_index'
p31
I3
sS'mapper_ITI_duration'
p32
F0.2
sS'mapper_pre_post_trials'
p33
I15
sS'stimulus_size'
p34
(lp35
F2.5
aI100
asS'mapper_response_duration'
p36
F1.0
sS'stimulus_col_rad'
p37
I75
sS'stimulus_col_max'
p38
I8
sS'timing_cue_duration'
p39
F0.75
sS'stimulus_positions'
p40
(lp41
(lp42
(lp43
F1.5
aF1.5
aa(lp44
F1.5
aF-1.5
aa(lp45
F-1.5
aF-1.5
aa(lp46
F-1.5
aF1.5
aaa(lp47
(lp48
F0.0
aF0.0
aaasS'stimulus_params'
p49
(lp50
sS'stimulus_base_colors'
p51
((I55
I80
I75
tp52
(I55
I-80
I75
tp53
tp54
sS'eyelink_calib_size'
p55
F0.5
sS'mapper_ntrials'
p56
I128
sS'quest_initial_stim_values'
p57
(I70
I70
I5
I5
tp58
sS'stimulus_base_spatfreq'
p59
(lp60
F0.03
aF0.06
asS'mapper_task_timing'
p61
(F2.0
F8.0
tp62
sS'stimulus_base_orientation'
p63
(I0
I90
tp64
sS'timing_responseDuration'
p65
F1.5
sS'session_types'
p66
(lp67
I0
aI1
aI2
aI3
asS'timing_start_empty'
p68
I0
sS'stimulus_ori_min'
p69
F90.0
sS'stimulus_mask'
p70
(lp71
S'raisedCos'
p72
aNasS'stimulus_col_steps'
p73
I8
sS'stimulus_ori_max'
p74
F270.0
sS'quest_minmax'
p75
(lp76
(I0
I80
tp77
a(I0
I80
tp78
a(I0
I100
tp79
a(I0
I100
tp80
asS'mapper_task_duration'
p81
F0.5
sS'stimulus_ori_steps'
p82
I8
sS'mapper_n_redraws'
p83
F5.0
sS'x_offset'
p84
F0.0
sS'timing_finish_empty'
p85
I0
sS'mapper_stimulus_duration'
p86
F0.65
sa(dp87
g4
F0.03
sg5
I63
sg6
g7
sg8
g9
sg12
I0
sg13
I55
sg14
F20.0
sg15
I2
sg16
F0.5
sg17
F0.15
sg18
F0.15
sg19
I0
sg20
g21
sg22
I1
sg23
g24
sg27
g28
sg29
F49.90008497238159
sg30
F0.945
sg31
I3
sg32
F0.2
sg33
I15
sg34
g35
sg36
F1.0
sg37
I75
sg38
I8
sg39
F0.75
sg40
g41
sg49
(lp88
sg51
g54
sg55
F0.5
sg56
I128
sg57
g58
sg59
g60
sg61
g62
sg63
g64
sg65
F1.5
sg66
g67
sg68
I0
sg69
F90.0
sg70
g71
sg73
I8
sg74
F270.0
sg75
g76
sg81
F0.5
sg82
I8
sg83
F5.0
sg84
F0.0
sg85
I0
sg86
F0.65
sa(dp89
g4
F0.03
sg5
I63
sg6
g7
sg8
g9
sg12
I0
sg13
I55
sg14
F20.0
sg15
I2
sg16
F0.5
sg17
F0.15
sg18
F0.15
sg19
I0
sg20
g21
sg22
I1
sg23
g24
sg27
g28
sg29
F50.85956788063049
sg30
F0.945
sg31
I3
sg32
F0.2
sg33
I15
sg34
g35
sg36
F1.0
sg37
I75
sg38
I8
sg39
F0.75
sg40
g41
sg49
(lp90
sg51
g54
sg55
F0.5
sg56
I128
sg57
g58
sg59
g60
sg61
g62
sg63
g64
sg65
F1.5
sg66
g67
sg68
I0
sg69
F90.0
sg70
g71
sg73
I8
sg74
F270.0
sg75
g76
sg81
F0.5
sg82
I8
sg83
F5.0
sg84
F0.0
sg85
I0
sg86
F0.65
sa(dp91
g4
F0.03
sg5
I63
sg6
g7
sg8
g9
sg12
I0
sg13
I55
sg14
F20.0
sg15
I2
sg16
F0.5
sg17
F0.15
sg18
F0.15
sg19
I0
sg20
g21
sg22
I1
sg23
g24
sg27
g28
sg29
F51.79078388214111
sg30
F0.945
sg31
I3
sg32
F0.2
sg33
I15
sg34
g35
sg36
F1.0
sg37
I75
sg38
I8
sg39
F0.75
sg40
g41
sg49
(lp92
sg51
g54
sg55
F0.5
sg56
I128
sg57
g58
sg59
g60
sg61
g62
sg63
g64
sg65
F1.5
sg66
g67
sg68
I0
sg69
F90.0
sg70
g71
sg73
I8
sg74
F270.0
sg75
g76
sg81
F0.5
sg82
I8
sg83
F5.0
sg84
F0.0
sg85
I0
sg86
F0.65
sa(dp93
g4
F0.03
sg5
I63
sg6
g7
sg8
g9
sg12
I0
sg13
I55
sg14
F20.0
sg15
I2
sg16
F0.5
sg17
F0.15
sg18
F0.15
sg19
I0
sg20
g21
sg22
I1
sg23
g24
sg27
g28
sg29
F52.73226594924927
sg30
F0.945
sg31
I3
sg32
F0.2
sg33
I15
sg34
g35
sg36
F1.0
sg37
I75
sg38
I8
sg39
F0.75
sg40
g41
sg49
(lp94
sg51
g54
sg55
F0.5
sg56
I128
sg57
g58
sg59
g60
sg61
g62
sg63
g64
sg65
F1.5
sg66
g67
sg68
I0
sg69
F90.0
sg70
g71
sg73
I8
sg74
F270.0
sg75
g76
sg81
F0.5
sg82
I8
sg83
F5.0
sg84
F0.0
sg85
I0
sg86
F0.65
sa(dp95
g4
F0.03
sg5
I63
sg6
g7
sg8
g9
sg12
I0
sg13
I55
sg14
F20.0
sg15
I2
sg16
F0.5
sg17
F0.15
sg18
F0.15
sg19
I0
sg20
g21
sg22
I1
sg23
g24
sg27
g28
sg29
F53.6804940700531
sg30
F0.945
sg31
I3
sg32
F0.2
sg33
I15
sg34
g35
sg36
F1.0
sg37
I75
sg38
I8
sg39
F0.75
sg40
g41
sg49
(lp96
sg51
g54
sg55
F0.5
sg56
I128
sg57
g58
sg59
g60
sg61
g62
sg63
g64
sg65
F1.5
sg66
g67
sg68
I0
sg69
F90.0
sg70
g71
sg73
I8
sg74
F270.0
sg75
g76
sg81
F0.5
sg82
I8
sg83
F5.0
sg84
F0.0
sg85
I0
sg86
F0.65
sa(dp97
g4
F0.03
sg5
I63
sg6
g7
sg8
g9
sg12
I0
sg13
I55
sg14
F20.0
sg15
I2
sg16
F0.5
sg17
F0.15
sg18
F0.15
sg19
I0
sg20
g21
sg22
I1
sg23
g24
sg27
g28
sg29
F54.62570810317993
sg30
F0.945
sg31
I3
sg32
F0.2
sg33
I15
sg34
g35
sg36
F1.0
sg37
I75
sg38
I8
sg39
F0.75
sg40
g41
sg49
(lp98
sg51
g54
sg55
F0.5
sg56
I128
sg57
g58
sg59
g60
sg61
g62
sg63
g64
sg65
F1.5
sg66
g67
sg68
I0
sg69
F90.0
sg70
g71
sg73
I8
sg74
F270.0
sg75
g76
sg81
F0.5
sg82
I8
sg83
F5.0
sg84
F0.0
sg85
I0
sg86
F0.65
sa(dp99
g4
F0.03
sg5
I63
sg6
g7
sg8
g9
sg12
I0
sg13
I55
sg14
F20.0
sg15
I2
sg16
F0.5
sg17
F0.15
sg18
F0.15
sg19
I0
sg20
g21
sg22
I1
sg23
g24
sg27
g28
sg29
F55.56948494911194
sg30
F0.945
sg31
I3
sg32
F0.2
sg33
I15
sg34
g35
sg36
F1.0
sg37
I75
sg38
I8
sg39
F0.75
sg40
g41
sg49
(lp100
sg51
g54
sg55
F0.5
sg56
I128
sg57
g58
sg59
g60
sg61
g62
sg63
g64
sg65
F1.5
sg66
g67
sg68
I0
sg69
F90.0
sg70
g71
sg73
I8
sg74
F270.0
sg75
g76
sg81
F0.5
sg82
I8
sg83
F5.0
sg84
F0.0
sg85
I0
sg86
F0.65
sa(dp101
g4
F0.03
sg5
I63
sg6
g7
sg8
g9
sg12
I0
sg13
I55
sg14
F20.0
sg15
I2
sg16
F0.5
sg17
F0.15
sg18
F0.15
sg19
I0
sg20
g21
sg22
I1
sg23
g24
sg27
g28
sg29
F56.515377044677734
sg30
F0.945
sg31
I3
sg32
F0.2
sg33
I15
sg34
g35
sg36
F1.0
sg37
I75
sg38
I8
sg39
F0.75
sg40
g41
sg49
(lp102
sg51
g54
sg55
F0.5
sg56
I128
sg57
g58
sg59
g60
sg61
g62
sg63
g64
sg65
F1.5
sg66
g67
sg68
I0
sg69
F90.0
sg70
g71
sg73
I8
sg74
F270.0
sg75
g76
sg81
F0.5
sg82
I8
sg83
F5.0
sg84
F0.0
sg85
I0
sg86
F0.65
sa(dp103
g4
F0.03
sg5
I63
sg6
g7
sg8
g9
sg12
I0
sg13
I55
sg14
F20.0
sg15
I2
sg16
F0.5
sg17
F0.15
sg18
F0.15
sg19
I0
sg20
g21
sg22
I1
sg23
g24
sg27
g28
sg29
F57.45643901824951
sg30
F0.945
sg31
I3
sg32
F0.2
sg33
I15
sg34
g35
sg36
F1.0
sg37
I75
sg38
I8
sg39
F0.75
sg40
g41
sg49
(lp104
sg51
g54
sg55
F0.5
sg56
I128
sg57
g58
sg59
g60
sg61
g62
sg63
g64
sg65
F1.5
sg66
g67
sg68
I0
sg69
F90.0
sg70
g71
sg73
I8
sg74
F270.0
sg75
g76
sg81
F0.5
sg82
I8
sg83
F5.0
sg84
F0.0
sg85
I0
sg86
F0.65
sa(dp105
g4
F0.03
sg5
I63
sg6
g7
sg8
g9
sg12
I0
sg13
I55
sg14
F20.0
sg15
I2
sg16
F0.5
sg17
F0.15
sg18
F0.15
sg19
I0
sg20
g21
sg22
I1
sg23
g24
sg27
g28
sg29
F58.40502405166626
sg30
F0.945
sg31
I3
sg32
F0.2
sg33
I15
sg34
g35
sg36
F1.0
sg37
I75
sg38
I8
sg39
F0.75
sg40
g41
sg49
(lp106
sg51
g54
sg55
F0.5
sg56
I128
sg57
g58
sg59
g60
sg61
g62
sg63
g64
sg65
F1.5
sg66
g67
sg68
I0
sg69
F90.0
sg70
g71
sg73
I8
sg74
F270.0
sg75
g76
sg81
F0.5
sg82
I8
sg83
F5.0
sg84
F0.0
sg85
I0
sg86
F0.65
sa(dp107
g4
F0.03
sg5
I63
sg6
g7
sg8
g9
sg12
I0
sg13
I55
sg14
F20.0
sg15
I2
sg16
F0.5
sg17
F0.15
sg18
F0.15
sg19
I0
sg20
g21
sg22
I1
sg23
g24
sg27
g28
sg29
F59.35034394264221
sg30
F0.945
sg31
I3
sg32
F0.2
sg33
I15
sg34
g35
sg36
F1.0
sg37
I75
sg38
I8
sg39
F0.75
sg40
g41
sg49
(lp108
sg51
g54
sg55
F0.5
sg56
I128
sg57
g58
sg59
g60
sg61
g62
sg63
g64
sg65
F1.5
sg66
g67
sg68
I0
sg69
F90.0
sg70
g71
sg73
I8
sg74
F270.0
sg75
g76
sg81
F0.5
sg82
I8
sg83
F5.0
sg84
F0.0
sg85
I0
sg86
F0.65
sa(dp109
g4
F0.03
sg5
I63
sg6
g7
sg8
g9
sg12
I0
sg13
I55
sg14
F20.0
sg15
I2
sg16
F0.5
sg17
F0.15
sg18
F0.15
sg19
I0
sg20
g21
sg22
I1
sg23
g24
sg27
g28
sg29
F60.29139304161072
sg30
F0.945
sg31
I3
sg32
F0.2
sg33
I15
sg34
g35
sg36
F1.0
sg37
I75
sg38
I8
sg39
F0.75
sg40
g41
sg49
(lp110
sg51
g54
sg55
F0.5
sg56
I128
sg57
g58
sg59
g60
sg61
g62
sg63
g64
sg65
F1.5
sg66
g67
sg68
I0
sg69
F90.0
sg70
g71
sg73
I8
sg74
F270.0
sg75
g76
sg81
F0.5
sg82
I8
sg83
F5.0
sg84
F0.0
sg85
I0
sg86
F0.65
sa(dp111
g4
F0.03
sg5
I63
sg6
g7
sg8
g9
sg12
I0
sg13
I55
sg14
F20.0
sg15
I2
sg16
F0.5
sg17
F0.15
sg18
F0.15
sg19
I0
sg20
g21
sg22
I1
sg23
g24
sg27
g28
sg29
F61.241549015045166
sg30
F0.945
sg31
I3
sg32
F0.2
sg33
I15
sg34
g35
sg36
F1.0
sg37
I75
sg38
I8
sg39
F0.75
sg40
g41
sg49
(lp112
sg51
g54
sg55
F0.5
sg56
I128
sg57
g58
sg59
g60
sg61
g62
sg63
g64
sg65
F1.5
sg66
g67
sg68
I0
sg69
F90.0
sg70
g71
sg73
I8
sg74
F270.0
sg75
g76
sg81
F0.5
sg82
I8
sg83
F5.0
sg84
F0.0
sg85
I0
sg86
F0.65
sa(dp113
g4
F0.03
sg5
I63
sg6
g7
sg8
g9
sg12
I0
sg13
I55
sg14
F20.0
sg15
I2
sg16
F0.5
sg17
F0.15
sg18
F0.15
sg19
I0
sg20
g21
sg22
I1
sg23
g24
sg27
g28
sg29
F62.18134593963623
sg30
F0.945
sg31
I3
sg32
F0.2
sg33
I15
sg34
g35
sg36
F1.0
sg37
I75
sg38
I8
sg39
F0.75
sg40
g41
sg49
(lp114
sg51
g54
sg55
F0.5
sg56
I128
sg57
g58
sg59
g60
sg61
g62
sg63
g64
sg65
F1.5
sg66
g67
sg68
I0
sg69
F90.0
sg70
g71
sg73
I8
sg74
F270.0
sg75
g76
sg81
F0.5
sg82
I8
sg83
F5.0
sg84
F0.0
sg85
I0
sg86
F0.65
sa(dp115
g4
F0.03
sg5
I63
sg6
g7
sg8
g9
sg12
I0
sg13
I55
sg14
F20.0
sg15
I2
sg16
F0.5
sg17
F0.15
sg18
F0.15
sg19
I0
sg20
g21
sg22
I1
sg23
g24
sg27
g28
sg29
F63.12588906288147
sg30
F0.945
sg31
I3
sg32
F0.2
sg33
I15
sg34
g35
sg36
F1.0
sg37
I75
sg38
I8
sg39
F0.75
sg40
g41
sg49
(lp116
sg51
g54
sg55
F0.5
sg56
I128
sg57
g58
sg59
g60
sg61
g62
sg63
g64
sg65
F1.5
sg66
g67
sg68
I0
sg69
F90.0
sg70
g71
sg73
I8
sg74
F270.0
sg75
g76
sg81
F0.5
sg82
I8
sg83
F5.0
sg84
F0.0
sg85
I0
sg86
F0.65
sa(dp117
g4
F0.03
sg5
I63
sg6
g7
sg8
g9
sg12
I0
sg13
I55
sg14
F20.0
sg15
I2
sg16
F0.5
sg17
F0.15
sg18
F0.15
sg19
I0
sg20
g21
sg22
I1
sg23
g24
sg27
g28
sg29
F64.07167410850525
sg30
F0.945
sg31
I3
sg32
F0.2
sg33
I15
sg34
g35
sg36
F1.0
sg37
I75
sg38
I8
sg39
F0.75
sg40
g41
sg49
(lp118
sg51
g54
sg55
F0.5
sg56
I128
sg57
g58
sg59
g60
sg61
g62
sg63
g64
sg65
F1.5
sg66
g67
sg68
I0
sg69
F90.0
sg70
g71
sg73
I8
sg74
F270.0
sg75
g76
sg81
F0.5
sg82
I8
sg83
F5.0
sg84
F0.0
sg85
I0
sg86
F0.65
sa(dp119
g4
F0.03
sg5
I63
sg6
g7
sg8
g9
sg12
I0
sg13
I55
sg14
F20.0
sg15
I2
sg16
F0.5
sg17
F0.15
sg18
F0.15
sg19
I0
sg20
g21
sg22
I1
sg23
g24
sg27
g28
sg29
F65.01533102989197
sg30
F0.945
sg31
I3
sg32
F0.2
sg33
I15
sg34
g35
sg36
F1.0
sg37
I75
sg38
I8
sg39
F0.75
sg40
g41
sg49
(lp120
sg51
g54
sg55
F0.5
sg56
I128
sg57
g58
sg59
g60
sg61
g62
sg63
g64
sg65
F1.5
sg66
g67
sg68
I0
sg69
F90.0
sg70
g71
sg73
I8
sg74
F270.0
sg75
g76
sg81
F0.5
sg82
I8
sg83
F5.0
sg84
F0.0
sg85
I0
sg86
F0.65
sa(dp121
g4
F0.03
sg5
I63
sg6
g7
sg8
g9
sg12
I0
sg13
I55
sg14
F20.0
sg15
I2
sg16
F0.5
sg17
F0.15
sg18
F0.15
sg19
I0
sg20
g21
sg22
I1
sg23
g24
sg27
g28
sg29
F65.96416807174683
sg30
F0.945
sg31
I3
sg32
F0.2
sg33
I15
sg34
g35
sg36
F1.0
sg37
I75
sg38
I8
sg39
F0.75
sg40
g41
sg49
(lp122
sg51
g54
sg55
F0.5
sg56
I128
sg57
g58
sg59
g60
sg61
g62
sg63
g64
sg65
F1.5
sg66
g67
sg68
I0
sg69
F90.0
sg70
g71
sg73
I8
sg74
F270.0
sg75
g76
sg81
F0.5
sg82
I8
sg83
F5.0
sg84
F0.0
sg85
I0
sg86
F0.65
sa(dp123
g4
F0.03
sg5
I63
sg6
g7
sg8
g9
sg12
I0
sg13
I55
sg14
F20.0
sg15
I2
sg16
F0.5
sg17
F0.15
sg18
F0.15
sg19
I0
sg20
g21
sg22
I1
sg23
g24
sg27
g28
sg29
F66.90806889533997
sg30
F0.945
sg31
I3
sg32
F0.2
sg33
I15
sg34
g35
sg36
F1.0
sg37
I75
sg38
I8
sg39
F0.75
sg40
g41
sg49
(lp124
sg51
g54
sg55
F0.5
sg56
I128
sg57
g58
sg59
g60
sg61
g62
sg63
g64
sg65
F1.5
sg66
g67
sg68
I0
sg69
F90.0
sg70
g71
sg73
I8
sg74
F270.0
sg75
g76
sg81
F0.5
sg82
I8
sg83
F5.0
sg84
F0.0
sg85
I0
sg86
F0.65
sa(dp125
g4
F0.03
sg5
I63
sg6
g7
sg8
g9
sg12
I0
sg13
I55
sg14
F20.0
sg15
I2
sg16
F0.5
sg17
F0.15
sg18
F0.15
sg19
I0
sg20
g21
sg22
I1
sg23
g24
sg27
g28
sg29
F67.8501329421997
sg30
F0.945
sg31
I3
sg32
F0.2
sg33
I15
sg34
g35
sg36
F1.0
sg37
I75
sg38
I8
sg39
F0.75
sg40
g41
sg49
(lp126
sg51
g54
sg55
F0.5
sg56
I128
sg57
g58
sg59
g60
sg61
g62
sg63
g64
sg65
F1.5
sg66
g67
sg68
I0
sg69
F90.0
sg70
g71
sg73
I8
sg74
F270.0
sg75
g76
sg81
F0.5
sg82
I8
sg83
F5.0
sg84
F0.0
sg85
I0
sg86
F0.65
sa(dp127
g4
F0.03
sg5
I63
sg6
g7
sg8
g9
sg12
I0
sg13
I55
sg14
F20.0
sg15
I2
sg16
F0.5
sg17
F0.15
sg18
F0.15
sg19
I0
sg20
g21
sg22
I1
sg23
g24
sg27
g28
sg29
F68.8043360710144
sg30
F0.945
sg31
I3
sg32
F0.2
sg33
I15
sg34
g35
sg36
F1.0
sg37
I75
sg38
I8
sg39
F0.75
sg40
g41
sg49
cnumpy.core.multiarray
_reconstruct
p128
(cnumpy
ndarray
p129
(I0
tp130
g10
tp131
Rp132
(I1
(I6
tp133
cnumpy
dtype
p134
(S'f8'
p135
I0
I1
tp136
Rp137
(I3
S'<'
p138
NNNI-1
I-1
I0
tp139
bI00
S'\x00\x00\x00\x00\x00\x80V@&\x95\xa5\xadY)\xe7\xbf@1a0\xd2\xbc\xc0?2\x05b\xe8&\x1a\xec\xbf\x00\x00\x00\x00\x00\x00\x00\x00\x00\x00\x00\x00\x00\x00\x00\x00'
p140
tp141
bsg51
g54
sg55
F0.5
sg56
I128
sg57
g58
sg59
g60
sg61
g62
sg63
g64
sg65
F1.5
sg66
g67
sg68
I0
sg69
F90.0
sg70
g71
sg73
I8
sg74
F270.0
sg75
g76
sg81
F0.5
sg82
I8
sg83
F5.0
sg84
F0.0
sg85
I0
sg86
F0.65
sa(dp142
g4
F0.03
sg5
I63
sg6
g7
sg8
g9
sg12
I0
sg13
I55
sg14
F20.0
sg15
I2
sg16
F0.5
sg17
F0.15
sg18
F0.15
sg19
I0
sg20
g21
sg22
I1
sg23
g24
sg27
g28
sg29
F69.7399160861969
sg30
F0.945
sg31
I3
sg32
F0.2
sg33
I15
sg34
g35
sg36
F1.0
sg37
I75
sg38
I8
sg39
F0.75
sg40
g41
sg49
(lp143
sg51
g54
sg55
F0.5
sg56
I128
sg57
g58
sg59
g60
sg61
g62
sg63
g64
sg65
F1.5
sg66
g67
sg68
I0
sg69
F90.0
sg70
g71
sg73
I8
sg74
F270.0
sg75
g76
sg81
F0.5
sg82
I8
sg83
F5.0
sg84
F0.0
sg85
I0
sg86
F0.65
sa(dp144
g4
F0.03
sg5
I63
sg6
g7
sg8
g9
sg12
I0
sg13
I55
sg14
F20.0
sg15
I2
sg16
F0.5
sg17
F0.15
sg18
F0.15
sg19
I0
sg20
g21
sg22
I1
sg23
g24
sg27
g28
sg29
F70.69039702415466
sg30
F0.945
sg31
I3
sg32
F0.2
sg33
I15
sg34
g35
sg36
F1.0
sg37
I75
sg38
I8
sg39
F0.75
sg40
g41
sg49
g128
(g129
(I0
tp145
g10
tp146
Rp147
(I1
(I6
tp148
g137
I00
S'\x00\x00\x00\x00\x00\xf0n@PMx\x12+\x80\xc8?\xd0\x88\xefwA\xdd\xab\xbf\x00\x00\x00\x00\x00\x00\xf0\xbf\x00\x00\x00\x00\x00\x00\x00\x00\x00\x00\x00\x00\x00\x00\x00\x00'
p149
tp150
bsg51
g54
sg55
F0.5
sg56
I128
sg57
g58
sg59
g60
sg61
g62
sg63
g64
sg65
F1.5
sg66
g67
sg68
I0
sg69
F90.0
sg70
g71
sg73
I8
sg74
F270.0
sg75
g76
sg81
F0.5
sg82
I8
sg83
F5.0
sg84
F0.0
sg85
I0
sg86
F0.65
sa(dp151
g4
F0.03
sg5
I63
sg6
g7
sg8
g9
sg12
I0
sg13
I55
sg14
F20.0
sg15
I2
sg16
F0.5
sg17
F0.15
sg18
F0.15
sg19
I0
sg20
g21
sg22
I1
sg23
g24
sg27
g28
sg29
F71.63280510902405
sg30
F0.945
sg31
I3
sg32
F0.2
sg33
I15
sg34
g35
sg36
F1.0
sg37
I75
sg38
I8
sg39
F0.75
sg40
g41
sg49
(lp152
sg51
g54
sg55
F0.5
sg56
I128
sg57
g58
sg59
g60
sg61
g62
sg63
g64
sg65
F1.5
sg66
g67
sg68
I0
sg69
F90.0
sg70
g71
sg73
I8
sg74
F270.0
sg75
g76
sg81
F0.5
sg82
I8
sg83
F5.0
sg84
F0.0
sg85
I0
sg86
F0.65
sa(dp153
g4
F0.03
sg5
I63
sg6
g7
sg8
g9
sg12
I0
sg13
I55
sg14
F20.0
sg15
I2
sg16
F0.5
sg17
F0.15
sg18
F0.15
sg19
I0
sg20
g21
sg22
I1
sg23
g24
sg27
g28
sg29
F72.57766199111938
sg30
F0.945
sg31
I3
sg32
F0.2
sg33
I15
sg34
g35
sg36
F1.0
sg37
I75
sg38
I8
sg39
F0.75
sg40
g41
sg49
(lp154
sg51
g54
sg55
F0.5
sg56
I128
sg57
g58
sg59
g60
sg61
g62
sg63
g64
sg65
F1.5
sg66
g67
sg68
I0
sg69
F90.0
sg70
g71
sg73
I8
sg74
F270.0
sg75
g76
sg81
F0.5
sg82
I8
sg83
F5.0
sg84
F0.0
sg85
I0
sg86
F0.65
sa(dp155
g4
F0.03
sg5
I63
sg6
g7
sg8
g9
sg12
I0
sg13
I55
sg14
F20.0
sg15
I2
sg16
F0.5
sg17
F0.15
sg18
F0.15
sg19
I0
sg20
g21
sg22
I1
sg23
g24
sg27
g28
sg29
F73.5222020149231
sg30
F0.945
sg31
I3
sg32
F0.2
sg33
I15
sg34
g35
sg36
F1.0
sg37
I75
sg38
I8
sg39
F0.75
sg40
g41
sg49
(lp156
sg51
g54
sg55
F0.5
sg56
I128
sg57
g58
sg59
g60
sg61
g62
sg63
g64
sg65
F1.5
sg66
g67
sg68
I0
sg69
F90.0
sg70
g71
sg73
I8
sg74
F270.0
sg75
g76
sg81
F0.5
sg82
I8
sg83
F5.0
sg84
F0.0
sg85
I0
sg86
F0.65
sa(dp157
g4
F0.03
sg5
I63
sg6
g7
sg8
g9
sg12
I0
sg13
I55
sg14
F20.0
sg15
I2
sg16
F0.5
sg17
F0.15
sg18
F0.15
sg19
I0
sg20
g21
sg22
I1
sg23
g24
sg27
g28
sg29
F74.4671061038971
sg30
F0.945
sg31
I3
sg32
F0.2
sg33
I15
sg34
g35
sg36
F1.0
sg37
I75
sg38
I8
sg39
F0.75
sg40
g41
sg49
(lp158
sg51
g54
sg55
F0.5
sg56
I128
sg57
g58
sg59
g60
sg61
g62
sg63
g64
sg65
F1.5
sg66
g67
sg68
I0
sg69
F90.0
sg70
g71
sg73
I8
sg74
F270.0
sg75
g76
sg81
F0.5
sg82
I8
sg83
F5.0
sg84
F0.0
sg85
I0
sg86
F0.65
sa(dp159
g4
F0.03
sg5
I63
sg6
g7
sg8
g9
sg12
I0
sg13
I55
sg14
F20.0
sg15
I2
sg16
F0.5
sg17
F0.15
sg18
F0.15
sg19
I0
sg20
g21
sg22
I1
sg23
g24
sg27
g28
sg29
F75.41202902793884
sg30
F0.945
sg31
I3
sg32
F0.2
sg33
I15
sg34
g35
sg36
F1.0
sg37
I75
sg38
I8
sg39
F0.75
sg40
g41
sg49
(lp160
sg51
g54
sg55
F0.5
sg56
I128
sg57
g58
sg59
g60
sg61
g62
sg63
g64
sg65
F1.5
sg66
g67
sg68
I0
sg69
F90.0
sg70
g71
sg73
I8
sg74
F270.0
sg75
g76
sg81
F0.5
sg82
I8
sg83
F5.0
sg84
F0.0
sg85
I0
sg86
F0.65
sa(dp161
g4
F0.03
sg5
I63
sg6
g7
sg8
g9
sg12
I0
sg13
I55
sg14
F20.0
sg15
I2
sg16
F0.5
sg17
F0.15
sg18
F0.15
sg19
I0
sg20
g21
sg22
I1
sg23
g24
sg27
g28
sg29
F76.35908102989197
sg30
F0.945
sg31
I3
sg32
F0.2
sg33
I15
sg34
g35
sg36
F1.0
sg37
I75
sg38
I8
sg39
F0.75
sg40
g41
sg49
g128
(g129
(I0
tp162
g10
tp163
Rp164
(I1
(I6
tp165
g137
I00
S'\x00\x00\x00\x00\x00Pi@\xb2\xf2\x90\x1b=l\xec?\xe6L\x16\x9b\xaa`\xe5\xbf\xc0\x1e\xa8cy_\x87\xbf\x00\x00\x00\x00\x00\x00\x00\x00\x00\x00\x00\x00\x00\x00\x00\x00'
p166
tp167
bsg51
g54
sg55
F0.5
sg56
I128
sg57
g58
sg59
g60
sg61
g62
sg63
g64
sg65
F1.5
sg66
g67
sg68
I0
sg69
F90.0
sg70
g71
sg73
I8
sg74
F270.0
sg75
g76
sg81
F0.5
sg82
I8
sg83
F5.0
sg84
F0.0
sg85
I0
sg86
F0.65
sa(dp168
g4
F0.03
sg5
I63
sg6
g7
sg8
g9
sg12
I0
sg13
I55
sg14
F20.0
sg15
I2
sg16
F0.5
sg17
F0.15
sg18
F0.15
sg19
I0
sg20
g21
sg22
I1
sg23
g24
sg27
g28
sg29
F77.2981629371643
sg30
F0.945
sg31
I3
sg32
F0.2
sg33
I15
sg34
g35
sg36
F1.0
sg37
I75
sg38
I8
sg39
F0.75
sg40
g41
sg49
(lp169
sg51
g54
sg55
F0.5
sg56
I128
sg57
g58
sg59
g60
sg61
g62
sg63
g64
sg65
F1.5
sg66
g67
sg68
I0
sg69
F90.0
sg70
g71
sg73
I8
sg74
F270.0
sg75
g76
sg81
F0.5
sg82
I8
sg83
F5.0
sg84
F0.0
sg85
I0
sg86
F0.65
sa(dp170
g4
F0.03
sg5
I63
sg6
g7
sg8
g9
sg12
I0
sg13
I55
sg14
F20.0
sg15
I2
sg16
F0.5
sg17
F0.15
sg18
F0.15
sg19
I0
sg20
g21
sg22
I1
sg23
g24
sg27
g28
sg29
F78.25097990036011
sg30
F0.945
sg31
I3
sg32
F0.2
sg33
I15
sg34
g35
sg36
F1.0
sg37
I75
sg38
I8
sg39
F0.75
sg40
g41
sg49
g128
(g129
(I0
tp171
g10
tp172
Rp173
(I1
(I6
tp174
g137
I00
S'\x00\x00\x00\x00\x00 \\@\x00\x00\x00\x00\x00\x00\xf0\xbfP\xbf\x14\xf1\xc8\n\xc9?\xd0\xfd\xf34\xff\xcd\xa9\xbf\x00\x00\x00\x00\x00\x00\x00\x00\x00\x00\x00\x00\x00\x00\x00\x00'
p175
tp176
bsg51
g54
sg55
F0.5
sg56
I128
sg57
g58
sg59
g60
sg61
g62
sg63
g64
sg65
F1.5
sg66
g67
sg68
I0
sg69
F90.0
sg70
g71
sg73
I8
sg74
F270.0
sg75
g76
sg81
F0.5
sg82
I8
sg83
F5.0
sg84
F0.0
sg85
I0
sg86
F0.65
sa(dp177
g4
F0.03
sg5
I63
sg6
g7
sg8
g9
sg12
I0
sg13
I55
sg14
F20.0
sg15
I2
sg16
F0.5
sg17
F0.15
sg18
F0.15
sg19
I0
sg20
g21
sg22
I1
sg23
g24
sg27
g28
sg29
F79.19165301322937
sg30
F0.945
sg31
I3
sg32
F0.2
sg33
I15
sg34
g35
sg36
F1.0
sg37
I75
sg38
I8
sg39
F0.75
sg40
g41
sg49
(lp178
sg51
g54
sg55
F0.5
sg56
I128
sg57
g58
sg59
g60
sg61
g62
sg63
g64
sg65
F1.5
sg66
g67
sg68
I0
sg69
F90.0
sg70
g71
sg73
I8
sg74
F270.0
sg75
g76
sg81
F0.5
sg82
I8
sg83
F5.0
sg84
F0.0
sg85
I0
sg86
F0.65
sa(dp179
g4
F0.03
sg5
I63
sg6
g7
sg8
g9
sg12
I0
sg13
I55
sg14
F20.0
sg15
I2
sg16
F0.5
sg17
F0.15
sg18
F0.15
sg19
I0
sg20
g21
sg22
I1
sg23
g24
sg27
g28
sg29
F80.13693189620972
sg30
F0.945
sg31
I3
sg32
F0.2
sg33
I15
sg34
g35
sg36
F1.0
sg37
I75
sg38
I8
sg39
F0.75
sg40
g41
sg49
g128
(g129
(I0
tp180
g10
tp181
Rp182
(I1
(I6
tp183
g137
I00
S'\x00\x00\x00\x00\x00\x80f@\x00\x00\x00\x00\x00\x00\xf0\xbfP\xbf\x14\xf1\xc8\n\xc9?\xd0\xfd\xf34\xff\xcd\xa9\xbf\x00\x00\x00\x00\x00\x00\x00\x00\x00\x00\x00\x00\x00\x00\x00\x00'
p184
tp185
bsg51
g54
sg55
F0.5
sg56
I128
sg57
g58
sg59
g60
sg61
g62
sg63
g64
sg65
F1.5
sg66
g67
sg68
I0
sg69
F90.0
sg70
g71
sg73
I8
sg74
F270.0
sg75
g76
sg81
F0.5
sg82
I8
sg83
F5.0
sg84
F0.0
sg85
I0
sg86
F0.65
sa(dp186
g4
F0.03
sg5
I63
sg6
g7
sg8
g9
sg12
I0
sg13
I55
sg14
F20.0
sg15
I2
sg16
F0.5
sg17
F0.15
sg18
F0.15
sg19
I0
sg20
g21
sg22
I1
sg23
g24
sg27
g28
sg29
F81.07826805114746
sg30
F0.945
sg31
I3
sg32
F0.2
sg33
I15
sg34
g35
sg36
F1.0
sg37
I75
sg38
I8
sg39
F0.75
sg40
g41
sg49
(lp187
sg51
g54
sg55
F0.5
sg56
I128
sg57
g58
sg59
g60
sg61
g62
sg63
g64
sg65
F1.5
sg66
g67
sg68
I0
sg69
F90.0
sg70
g71
sg73
I8
sg74
F270.0
sg75
g76
sg81
F0.5
sg82
I8
sg83
F5.0
sg84
F0.0
sg85
I0
sg86
F0.65
sa(dp188
g4
F0.03
sg5
I63
sg6
g7
sg8
g9
sg12
I0
sg13
I55
sg14
F20.0
sg15
I2
sg16
F0.5
sg17
F0.15
sg18
F0.15
sg19
I0
sg20
g21
sg22
I1
sg23
g24
sg27
g28
sg29
F82.03074407577515
sg30
F0.945
sg31
I3
sg32
F0.2
sg33
I15
sg34
g35
sg36
F1.0
sg37
I75
sg38
I8
sg39
F0.75
sg40
g41
sg49
g128
(g129
(I0
tp189
g10
tp190
Rp191
(I1
(I6
tp192
g137
I00
S'\x00\x00\x00\x00\x00\xb0c@(\xfd\x95\xfe\x02;\xd4?N\x98v\x8a\xdb\xe8\xd3\xbfl\xcd\x82\xdd=\x90\xe7?\x00\x00\x00\x00\x00\x00\x00\x00\x00\x00\x00\x00\x00\x00\x00\x00'
p193
tp194
bsg51
g54
sg55
F0.5
sg56
I128
sg57
g58
sg59
g60
sg61
g62
sg63
g64
sg65
F1.5
sg66
g67
sg68
I0
sg69
F90.0
sg70
g71
sg73
I8
sg74
F270.0
sg75
g76
sg81
F0.5
sg82
I8
sg83
F5.0
sg84
F0.0
sg85
I0
sg86
F0.65
sa(dp195
g4
F0.03
sg5
I63
sg6
g7
sg8
g9
sg12
I0
sg13
I55
sg14
F20.0
sg15
I2
sg16
F0.5
sg17
F0.15
sg18
F0.15
sg19
I0
sg20
g21
sg22
I1
sg23
g24
sg27
g28
sg29
F82.96979308128357
sg30
F0.945
sg31
I3
sg32
F0.2
sg33
I15
sg34
g35
sg36
F1.0
sg37
I75
sg38
I8
sg39
F0.75
sg40
g41
sg49
(lp196
sg51
g54
sg55
F0.5
sg56
I128
sg57
g58
sg59
g60
sg61
g62
sg63
g64
sg65
F1.5
sg66
g67
sg68
I0
sg69
F90.0
sg70
g71
sg73
I8
sg74
F270.0
sg75
g76
sg81
F0.5
sg82
I8
sg83
F5.0
sg84
F0.0
sg85
I0
sg86
F0.65
sa(dp197
g4
F0.03
sg5
I63
sg6
g7
sg8
g9
sg12
I0
sg13
I55
sg14
F20.0
sg15
I2
sg16
F0.5
sg17
F0.15
sg18
F0.15
sg19
I0
sg20
g21
sg22
I1
sg23
g24
sg27
g28
sg29
F83.92615604400635
sg30
F0.945
sg31
I3
sg32
F0.2
sg33
I15
sg34
g35
sg36
F1.0
sg37
I75
sg38
I8
sg39
F0.75
sg40
g41
sg49
g128
(g129
(I0
tp198
g10
tp199
Rp200
(I1
(I6
tp201
g137
I00
S'\x00\x00\x00\x00\x00\x80V@\x00\x00\x00\x00\x00\x00\xf0\xbf\xe0\xf5z1\x12\xd3\xa1?\x00\x00\x00\x00\x00\x00\xf0?\x00\x00\x00\x00\x00\x00\x00\x00\x00\x00\x00\x00\x00\x00\x00\x00'
p202
tp203
bsg51
g54
sg55
F0.5
sg56
I128
sg57
g58
sg59
g60
sg61
g62
sg63
g64
sg65
F1.5
sg66
g67
sg68
I0
sg69
F90.0
sg70
g71
sg73
I8
sg74
F270.0
sg75
g76
sg81
F0.5
sg82
I8
sg83
F5.0
sg84
F0.0
sg85
I0
sg86
F0.65
sa(dp204
g4
F0.03
sg5
I63
sg6
g7
sg8
g9
sg12
I0
sg13
I55
sg14
F20.0
sg15
I2
sg16
F0.5
sg17
F0.15
sg18
F0.15
sg19
I0
sg20
g21
sg22
I1
sg23
g24
sg27
g28
sg29
F84.86252999305725
sg30
F0.945
sg31
I3
sg32
F0.2
sg33
I15
sg34
g35
sg36
F1.0
sg37
I75
sg38
I8
sg39
F0.75
sg40
g41
sg49
(lp205
sg51
g54
sg55
F0.5
sg56
I128
sg57
g58
sg59
g60
sg61
g62
sg63
g64
sg65
F1.5
sg66
g67
sg68
I0
sg69
F90.0
sg70
g71
sg73
I8
sg74
F270.0
sg75
g76
sg81
F0.5
sg82
I8
sg83
F5.0
sg84
F0.0
sg85
I0
sg86
F0.65
sa(dp206
g4
F0.03
sg5
I63
sg6
g7
sg8
g9
sg12
I0
sg13
I55
sg14
F20.0
sg15
I2
sg16
F0.5
sg17
F0.15
sg18
F0.15
sg19
I0
sg20
g21
sg22
I1
sg23
g24
sg27
g28
sg29
F85.81074094772339
sg30
F0.945
sg31
I3
sg32
F0.2
sg33
I15
sg34
g35
sg36
F1.0
sg37
I75
sg38
I8
sg39
F0.75
sg40
g41
sg49
g128
(g129
(I0
tp207
g10
tp208
Rp209
(I1
(I6
tp210
g137
I00
S'\x00\x00\x00\x00\x00\xf0n@&\x95\xa5\xadY)\xe7\xbf@1a0\xd2\xbc\xc0?2\x05b\xe8&\x1a\xec\xbf\x00\x00\x00\x00\x00\x00\x00\x00\x00\x00\x00\x00\x00\x00\x00\x00'
p211
tp212
bsg51
g54
sg55
F0.5
sg56
I128
sg57
g58
sg59
g60
sg61
g62
sg63
g64
sg65
F1.5
sg66
g67
sg68
I0
sg69
F90.0
sg70
g71
sg73
I8
sg74
F270.0
sg75
g76
sg81
F0.5
sg82
I8
sg83
F5.0
sg84
F0.0
sg85
I0
sg86
F0.65
sa(dp213
g4
F0.03
sg5
I63
sg6
g7
sg8
g9
sg12
I0
sg13
I55
sg14
F20.0
sg15
I2
sg16
F0.5
sg17
F0.15
sg18
F0.15
sg19
I0
sg20
g21
sg22
I1
sg23
g24
sg27
g28
sg29
F86.74843001365662
sg30
F0.945
sg31
I3
sg32
F0.2
sg33
I15
sg34
g35
sg36
F1.0
sg37
I75
sg38
I8
sg39
F0.75
sg40
g41
sg49
(lp214
sg51
g54
sg55
F0.5
sg56
I128
sg57
g58
sg59
g60
sg61
g62
sg63
g64
sg65
F1.5
sg66
g67
sg68
I0
sg69
F90.0
sg70
g71
sg73
I8
sg74
F270.0
sg75
g76
sg81
F0.5
sg82
I8
sg83
F5.0
sg84
F0.0
sg85
I0
sg86
F0.65
sa(dp215
g4
F0.03
sg5
I63
sg6
g7
sg8
g9
sg12
I0
sg13
I55
sg14
F20.0
sg15
I2
sg16
F0.5
sg17
F0.15
sg18
F0.15
sg19
I0
sg20
g21
sg22
I1
sg23
g24
sg27
g28
sg29
F87.70398497581482
sg30
F0.945
sg31
I3
sg32
F0.2
sg33
I15
sg34
g35
sg36
F1.0
sg37
I75
sg38
I8
sg39
F0.75
sg40
g41
sg49
g128
(g129
(I0
tp216
g10
tp217
Rp218
(I1
(I6
tp219
g137
I00
S'\x00\x00\x00\x00\x00Pi@\x00\x00\x00\x00\x00\x00\xf0\xbfP\xbf\x14\xf1\xc8\n\xc9?\xd0\xfd\xf34\xff\xcd\xa9\xbf\x00\x00\x00\x00\x00\x00\x00\x00\x00\x00\x00\x00\x00\x00\x00\x00'
p220
tp221
bsg51
g54
sg55
F0.5
sg56
I128
sg57
g58
sg59
g60
sg61
g62
sg63
g64
sg65
F1.5
sg66
g67
sg68
I0
sg69
F90.0
sg70
g71
sg73
I8
sg74
F270.0
sg75
g76
sg81
F0.5
sg82
I8
sg83
F5.0
sg84
F0.0
sg85
I0
sg86
F0.65
sa(dp222
g4
F0.03
sg5
I63
sg6
g7
sg8
g9
sg12
I0
sg13
I55
sg14
F20.0
sg15
I2
sg16
F0.5
sg17
F0.15
sg18
F0.15
sg19
I0
sg20
g21
sg22
I1
sg23
g24
sg27
g28
sg29
F88.63794803619385
sg30
F0.945
sg31
I3
sg32
F0.2
sg33
I15
sg34
g35
sg36
F1.0
sg37
I75
sg38
I8
sg39
F0.75
sg40
g41
sg49
(lp223
sg51
g54
sg55
F0.5
sg56
I128
sg57
g58
sg59
g60
sg61
g62
sg63
g64
sg65
F1.5
sg66
g67
sg68
I0
sg69
F90.0
sg70
g71
sg73
I8
sg74
F270.0
sg75
g76
sg81
F0.5
sg82
I8
sg83
F5.0
sg84
F0.0
sg85
I0
sg86
F0.65
sa(dp224
g4
F0.03
sg5
I63
sg6
g7
sg8
g9
sg12
I0
sg13
I55
sg14
F20.0
sg15
I2
sg16
F0.5
sg17
F0.15
sg18
F0.15
sg19
I0
sg20
g21
sg22
I1
sg23
g24
sg27
g28
sg29
F89.58697605133057
sg30
F0.945
sg31
I3
sg32
F0.2
sg33
I15
sg34
g35
sg36
F1.0
sg37
I75
sg38
I8
sg39
F0.75
sg40
g41
sg49
g128
(g129
(I0
tp225
g10
tp226
Rp227
(I1
(I6
tp228
g137
I00
S'\x00\x00\x00\x00\x00\x80f@\x00\x00\x00\x00\x00\x00\xf0\xbf\xe0\xf5z1\x12\xd3\xa1?\x00\x00\x00\x00\x00\x00\xf0?\x00\x00\x00\x00\x00\x00\x00\x00\x00\x00\x00\x00\x00\x00\x00\x00'
p229
tp230
bsg51
g54
sg55
F0.5
sg56
I128
sg57
g58
sg59
g60
sg61
g62
sg63
g64
sg65
F1.5
sg66
g67
sg68
I0
sg69
F90.0
sg70
g71
sg73
I8
sg74
F270.0
sg75
g76
sg81
F0.5
sg82
I8
sg83
F5.0
sg84
F0.0
sg85
I0
sg86
F0.65
sa(dp231
g4
F0.03
sg5
I63
sg6
g7
sg8
g9
sg12
I0
sg13
I55
sg14
F20.0
sg15
I2
sg16
F0.5
sg17
F0.15
sg18
F0.15
sg19
I0
sg20
g21
sg22
I1
sg23
g24
sg27
g28
sg29
F90.52935194969177
sg30
F0.945
sg31
I3
sg32
F0.2
sg33
I15
sg34
g35
sg36
F1.0
sg37
I75
sg38
I8
sg39
F0.75
sg40
g41
sg49
(lp232
sg51
g54
sg55
F0.5
sg56
I128
sg57
g58
sg59
g60
sg61
g62
sg63
g64
sg65
F1.5
sg66
g67
sg68
I0
sg69
F90.0
sg70
g71
sg73
I8
sg74
F270.0
sg75
g76
sg81
F0.5
sg82
I8
sg83
F5.0
sg84
F0.0
sg85
I0
sg86
F0.65
sa(dp233
g4
F0.03
sg5
I63
sg6
g7
sg8
g9
sg12
I0
sg13
I55
sg14
F20.0
sg15
I2
sg16
F0.5
sg17
F0.15
sg18
F0.15
sg19
I0
sg20
g21
sg22
I1
sg23
g24
sg27
g28
sg29
F91.47261095046997
sg30
F0.945
sg31
I3
sg32
F0.2
sg33
I15
sg34
g35
sg36
F1.0
sg37
I75
sg38
I8
sg39
F0.75
sg40
g41
sg49
(lp234
sg51
g54
sg55
F0.5
sg56
I128
sg57
g58
sg59
g60
sg61
g62
sg63
g64
sg65
F1.5
sg66
g67
sg68
I0
sg69
F90.0
sg70
g71
sg73
I8
sg74
F270.0
sg75
g76
sg81
F0.5
sg82
I8
sg83
F5.0
sg84
F0.0
sg85
I0
sg86
F0.65
sa(dp235
g4
F0.03
sg5
I63
sg6
g7
sg8
g9
sg12
I0
sg13
I55
sg14
F20.0
sg15
I2
sg16
F0.5
sg17
F0.15
sg18
F0.15
sg19
I0
sg20
g21
sg22
I1
sg23
g24
sg27
g28
sg29
F92.41728496551514
sg30
F0.945
sg31
I3
sg32
F0.2
sg33
I15
sg34
g35
sg36
F1.0
sg37
I75
sg38
I8
sg39
F0.75
sg40
g41
sg49
(lp236
sg51
g54
sg55
F0.5
sg56
I128
sg57
g58
sg59
g60
sg61
g62
sg63
g64
sg65
F1.5
sg66
g67
sg68
I0
sg69
F90.0
sg70
g71
sg73
I8
sg74
F270.0
sg75
g76
sg81
F0.5
sg82
I8
sg83
F5.0
sg84
F0.0
sg85
I0
sg86
F0.65
sa(dp237
g4
F0.03
sg5
I63
sg6
g7
sg8
g9
sg12
I0
sg13
I55
sg14
F20.0
sg15
I2
sg16
F0.5
sg17
F0.15
sg18
F0.15
sg19
I0
sg20
g21
sg22
I1
sg23
g24
sg27
g28
sg29
F93.361820936203
sg30
F0.945
sg31
I3
sg32
F0.2
sg33
I15
sg34
g35
sg36
F1.0
sg37
I75
sg38
I8
sg39
F0.75
sg40
g41
sg49
(lp238
sg51
g54
sg55
F0.5
sg56
I128
sg57
g58
sg59
g60
sg61
g62
sg63
g64
sg65
F1.5
sg66
g67
sg68
I0
sg69
F90.0
sg70
g71
sg73
I8
sg74
F270.0
sg75
g76
sg81
F0.5
sg82
I8
sg83
F5.0
sg84
F0.0
sg85
I0
sg86
F0.65
sa(dp239
g4
F0.03
sg5
I63
sg6
g7
sg8
g9
sg12
I0
sg13
I55
sg14
F20.0
sg15
I2
sg16
F0.5
sg17
F0.15
sg18
F0.15
sg19
I0
sg20
g21
sg22
I1
sg23
g24
sg27
g28
sg29
F94.30964088439941
sg30
F0.945
sg31
I3
sg32
F0.2
sg33
I15
sg34
g35
sg36
F1.0
sg37
I75
sg38
I8
sg39
F0.75
sg40
g41
sg49
(lp240
sg51
g54
sg55
F0.5
sg56
I128
sg57
g58
sg59
g60
sg61
g62
sg63
g64
sg65
F1.5
sg66
g67
sg68
I0
sg69
F90.0
sg70
g71
sg73
I8
sg74
F270.0
sg75
g76
sg81
F0.5
sg82
I8
sg83
F5.0
sg84
F0.0
sg85
I0
sg86
F0.65
sa(dp241
g4
F0.03
sg5
I63
sg6
g7
sg8
g9
sg12
I0
sg13
I55
sg14
F20.0
sg15
I2
sg16
F0.5
sg17
F0.15
sg18
F0.15
sg19
I0
sg20
g21
sg22
I1
sg23
g24
sg27
g28
sg29
F95.25909996032715
sg30
F0.945
sg31
I3
sg32
F0.2
sg33
I15
sg34
g35
sg36
F1.0
sg37
I75
sg38
I8
sg39
F0.75
sg40
g41
sg49
g128
(g129
(I0
tp242
g10
tp243
Rp244
(I1
(I6
tp245
g137
I00
S'\x00\x00\x00\x00\x00 l@\x00\x00\x00\x00\x00\x00\xf0\xbf\x88\x86a>51\xc7?\xb0\xaa\xa5\x0e\xac\x19\xe7?\x00\x00\x00\x00\x00\x00\x00\x00\x00\x00\x00\x00\x00\x00\x00\x00'
p246
tp247
bsg51
g54
sg55
F0.5
sg56
I128
sg57
g58
sg59
g60
sg61
g62
sg63
g64
sg65
F1.5
sg66
g67
sg68
I0
sg69
F90.0
sg70
g71
sg73
I8
sg74
F270.0
sg75
g76
sg81
F0.5
sg82
I8
sg83
F5.0
sg84
F0.0
sg85
I0
sg86
F0.65
sa(dp248
g4
F0.03
sg5
I63
sg6
g7
sg8
g9
sg12
I0
sg13
I55
sg14
F20.0
sg15
I2
sg16
F0.5
sg17
F0.15
sg18
F0.15
sg19
I0
sg20
g21
sg22
I1
sg23
g24
sg27
g28
sg29
F96.1961030960083
sg30
F0.945
sg31
I3
sg32
F0.2
sg33
I15
sg34
g35
sg36
F1.0
sg37
I75
sg38
I8
sg39
F0.75
sg40
g41
sg49
(lp249
sg51
g54
sg55
F0.5
sg56
I128
sg57
g58
sg59
g60
sg61
g62
sg63
g64
sg65
F1.5
sg66
g67
sg68
I0
sg69
F90.0
sg70
g71
sg73
I8
sg74
F270.0
sg75
g76
sg81
F0.5
sg82
I8
sg83
F5.0
sg84
F0.0
sg85
I0
sg86
F0.65
sa(dp250
g4
F0.03
sg5
I63
sg6
g7
sg8
g9
sg12
I0
sg13
I55
sg14
F20.0
sg15
I2
sg16
F0.5
sg17
F0.15
sg18
F0.15
sg19
I0
sg20
g21
sg22
I1
sg23
g24
sg27
g28
sg29
F97.14675188064575
sg30
F0.945
sg31
I3
sg32
F0.2
sg33
I15
sg34
g35
sg36
F1.0
sg37
I75
sg38
I8
sg39
F0.75
sg40
g41
sg49
g128
(g129
(I0
tp251
g10
tp252
Rp253
(I1
(I6
tp254
g137
I00
S'\x00\x00\x00\x00\x00 l@\xb2\xf2\x90\x1b=l\xec?\xe6L\x16\x9b\xaa`\xe5\xbf\xc0\x1e\xa8cy_\x87\xbf\x00\x00\x00\x00\x00\x00\x00\x00\x00\x00\x00\x00\x00\x00\x00\x00'
p255
tp256
bsg51
g54
sg55
F0.5
sg56
I128
sg57
g58
sg59
g60
sg61
g62
sg63
g64
sg65
F1.5
sg66
g67
sg68
I0
sg69
F90.0
sg70
g71
sg73
I8
sg74
F270.0
sg75
g76
sg81
F0.5
sg82
I8
sg83
F5.0
sg84
F0.0
sg85
I0
sg86
F0.65
sa(dp257
g4
F0.03
sg5
I63
sg6
g7
sg8
g9
sg12
I0
sg13
I55
sg14
F20.0
sg15
I2
sg16
F0.5
sg17
F0.15
sg18
F0.15
sg19
I0
sg20
g21
sg22
I1
sg23
g24
sg27
g28
sg29
F98.08639287948608
sg30
F0.945
sg31
I3
sg32
F0.2
sg33
I15
sg34
g35
sg36
F1.0
sg37
I75
sg38
I8
sg39
F0.75
sg40
g41
sg49
(lp258
sg51
g54
sg55
F0.5
sg56
I128
sg57
g58
sg59
g60
sg61
g62
sg63
g64
sg65
F1.5
sg66
g67
sg68
I0
sg69
F90.0
sg70
g71
sg73
I8
sg74
F270.0
sg75
g76
sg81
F0.5
sg82
I8
sg83
F5.0
sg84
F0.0
sg85
I0
sg86
F0.65
sa(dp259
g4
F0.03
sg5
I63
sg6
g7
sg8
g9
sg12
I0
sg13
I55
sg14
F20.0
sg15
I2
sg16
F0.5
sg17
F0.15
sg18
F0.15
sg19
I0
sg20
g21
sg22
I1
sg23
g24
sg27
g28
sg29
F99.03656005859375
sg30
F0.945
sg31
I3
sg32
F0.2
sg33
I15
sg34
g35
sg36
F1.0
sg37
I75
sg38
I8
sg39
F0.75
sg40
g41
sg49
g128
(g129
(I0
tp260
g10
tp261
Rp262
(I1
(I6
tp263
g137
I00
S'\x00\x00\x00\x00\x00 \\@&\x95\xa5\xadY)\xe7\xbf@1a0\xd2\xbc\xc0?2\x05b\xe8&\x1a\xec\xbf\x00\x00\x00\x00\x00\x00\x00\x00\x00\x00\x00\x00\x00\x00\x00\x00'
p264
tp265
bsg51
g54
sg55
F0.5
sg56
I128
sg57
g58
sg59
g60
sg61
g62
sg63
g64
sg65
F1.5
sg66
g67
sg68
I0
sg69
F90.0
sg70
g71
sg73
I8
sg74
F270.0
sg75
g76
sg81
F0.5
sg82
I8
sg83
F5.0
sg84
F0.0
sg85
I0
sg86
F0.65
sa(dp266
g4
F0.03
sg5
I63
sg6
g7
sg8
g9
sg12
I0
sg13
I55
sg14
F20.0
sg15
I2
sg16
F0.5
sg17
F0.15
sg18
F0.15
sg19
I0
sg20
g21
sg22
I1
sg23
g24
sg27
g28
sg29
F99.97570204734802
sg30
F0.945
sg31
I3
sg32
F0.2
sg33
I15
sg34
g35
sg36
F1.0
sg37
I75
sg38
I8
sg39
F0.75
sg40
g41
sg49
(lp267
sg51
g54
sg55
F0.5
sg56
I128
sg57
g58
sg59
g60
sg61
g62
sg63
g64
sg65
F1.5
sg66
g67
sg68
I0
sg69
F90.0
sg70
g71
sg73
I8
sg74
F270.0
sg75
g76
sg81
F0.5
sg82
I8
sg83
F5.0
sg84
F0.0
sg85
I0
sg86
F0.65
sa(dp268
g4
F0.03
sg5
I63
sg6
g7
sg8
g9
sg12
I0
sg13
I55
sg14
F20.0
sg15
I2
sg16
F0.5
sg17
F0.15
sg18
F0.15
sg19
I0
sg20
g21
sg22
I1
sg23
g24
sg27
g28
sg29
F100.92158508300781
sg30
F0.945
sg31
I3
sg32
F0.2
sg33
I15
sg34
g35
sg36
F1.0
sg37
I75
sg38
I8
sg39
F0.75
sg40
g41
sg49
(lp269
sg51
g54
sg55
F0.5
sg56
I128
sg57
g58
sg59
g60
sg61
g62
sg63
g64
sg65
F1.5
sg66
g67
sg68
I0
sg69
F90.0
sg70
g71
sg73
I8
sg74
F270.0
sg75
g76
sg81
F0.5
sg82
I8
sg83
F5.0
sg84
F0.0
sg85
I0
sg86
F0.65
sa(dp270
g4
F0.03
sg5
I63
sg6
g7
sg8
g9
sg12
I0
sg13
I55
sg14
F20.0
sg15
I2
sg16
F0.5
sg17
F0.15
sg18
F0.15
sg19
I0
sg20
g21
sg22
I1
sg23
g24
sg27
g28
sg29
F101.86661410331726
sg30
F0.945
sg31
I3
sg32
F0.2
sg33
I15
sg34
g35
sg36
F1.0
sg37
I75
sg38
I8
sg39
F0.75
sg40
g41
sg49
(lp271
sg51
g54
sg55
F0.5
sg56
I128
sg57
g58
sg59
g60
sg61
g62
sg63
g64
sg65
F1.5
sg66
g67
sg68
I0
sg69
F90.0
sg70
g71
sg73
I8
sg74
F270.0
sg75
g76
sg81
F0.5
sg82
I8
sg83
F5.0
sg84
F0.0
sg85
I0
sg86
F0.65
sa(dp272
g4
F0.03
sg5
I63
sg6
g7
sg8
g9
sg12
I0
sg13
I55
sg14
F20.0
sg15
I2
sg16
F0.5
sg17
F0.15
sg18
F0.15
sg19
I0
sg20
g21
sg22
I1
sg23
g24
sg27
g28
sg29
F102.81586408615112
sg30
F0.945
sg31
I3
sg32
F0.2
sg33
I15
sg34
g35
sg36
F1.0
sg37
I75
sg38
I8
sg39
F0.75
sg40
g41
sg49
(lp273
sg51
g54
sg55
F0.5
sg56
I128
sg57
g58
sg59
g60
sg61
g62
sg63
g64
sg65
F1.5
sg66
g67
sg68
I0
sg69
F90.0
sg70
g71
sg73
I8
sg74
F270.0
sg75
g76
sg81
F0.5
sg82
I8
sg83
F5.0
sg84
F0.0
sg85
I0
sg86
F0.65
sa(dp274
g4
F0.03
sg5
I63
sg6
g7
sg8
g9
sg12
I0
sg13
I55
sg14
F20.0
sg15
I2
sg16
F0.5
sg17
F0.15
sg18
F0.15
sg19
I0
sg20
g21
sg22
I1
sg23
g24
sg27
g28
sg29
F103.75816607475281
sg30
F0.945
sg31
I3
sg32
F0.2
sg33
I15
sg34
g35
sg36
F1.0
sg37
I75
sg38
I8
sg39
F0.75
sg40
g41
sg49
(lp275
sg51
g54
sg55
F0.5
sg56
I128
sg57
g58
sg59
g60
sg61
g62
sg63
g64
sg65
F1.5
sg66
g67
sg68
I0
sg69
F90.0
sg70
g71
sg73
I8
sg74
F270.0
sg75
g76
sg81
F0.5
sg82
I8
sg83
F5.0
sg84
F0.0
sg85
I0
sg86
F0.65
sa(dp276
g4
F0.03
sg5
I63
sg6
g7
sg8
g9
sg12
I0
sg13
I55
sg14
F20.0
sg15
I2
sg16
F0.5
sg17
F0.15
sg18
F0.15
sg19
I0
sg20
g21
sg22
I1
sg23
g24
sg27
g28
sg29
F104.70353388786316
sg30
F0.945
sg31
I3
sg32
F0.2
sg33
I15
sg34
g35
sg36
F1.0
sg37
I75
sg38
I8
sg39
F0.75
sg40
g41
sg49
(lp277
sg51
g54
sg55
F0.5
sg56
I128
sg57
g58
sg59
g60
sg61
g62
sg63
g64
sg65
F1.5
sg66
g67
sg68
I0
sg69
F90.0
sg70
g71
sg73
I8
sg74
F270.0
sg75
g76
sg81
F0.5
sg82
I8
sg83
F5.0
sg84
F0.0
sg85
I0
sg86
F0.65
sa(dp278
g4
F0.03
sg5
I63
sg6
g7
sg8
g9
sg12
I0
sg13
I55
sg14
F20.0
sg15
I2
sg16
F0.5
sg17
F0.15
sg18
F0.15
sg19
I0
sg20
g21
sg22
I1
sg23
g24
sg27
g28
sg29
F105.64539408683777
sg30
F0.945
sg31
I3
sg32
F0.2
sg33
I15
sg34
g35
sg36
F1.0
sg37
I75
sg38
I8
sg39
F0.75
sg40
g41
sg49
(lp279
sg51
g54
sg55
F0.5
sg56
I128
sg57
g58
sg59
g60
sg61
g62
sg63
g64
sg65
F1.5
sg66
g67
sg68
I0
sg69
F90.0
sg70
g71
sg73
I8
sg74
F270.0
sg75
g76
sg81
F0.5
sg82
I8
sg83
F5.0
sg84
F0.0
sg85
I0
sg86
F0.65
sa(dp280
g4
F0.03
sg5
I63
sg6
g7
sg8
g9
sg12
I0
sg13
I55
sg14
F20.0
sg15
I2
sg16
F0.5
sg17
F0.15
sg18
F0.15
sg19
I0
sg20
g21
sg22
I1
sg23
g24
sg27
g28
sg29
F106.59544587135315
sg30
F0.945
sg31
I3
sg32
F0.2
sg33
I15
sg34
g35
sg36
F1.0
sg37
I75
sg38
I8
sg39
F0.75
sg40
g41
sg49
g128
(g129
(I0
tp281
g10
tp282
Rp283
(I1
(I6
tp284
g137
I00
S'\x00\x00\x00\x00\x00 \\@PMx\x12+\x80\xc8?\xd0\x88\xefwA\xdd\xab\xbf\x00\x00\x00\x00\x00\x00\xf0\xbf\x00\x00\x00\x00\x00\x00\x00\x00\x00\x00\x00\x00\x00\x00\x00\x00'
p285
tp286
bsg51
g54
sg55
F0.5
sg56
I128
sg57
g58
sg59
g60
sg61
g62
sg63
g64
sg65
F1.5
sg66
g67
sg68
I0
sg69
F90.0
sg70
g71
sg73
I8
sg74
F270.0
sg75
g76
sg81
F0.5
sg82
I8
sg83
F5.0
sg84
F0.0
sg85
I0
sg86
F0.65
sa(dp287
g4
F0.03
sg5
I63
sg6
g7
sg8
g9
sg12
I0
sg13
I55
sg14
F20.0
sg15
I2
sg16
F0.5
sg17
F0.15
sg18
F0.15
sg19
I0
sg20
g21
sg22
I1
sg23
g24
sg27
g28
sg29
F107.53835606575012
sg30
F0.945
sg31
I3
sg32
F0.2
sg33
I15
sg34
g35
sg36
F1.0
sg37
I75
sg38
I8
sg39
F0.75
sg40
g41
sg49
(lp288
sg51
g54
sg55
F0.5
sg56
I128
sg57
g58
sg59
g60
sg61
g62
sg63
g64
sg65
F1.5
sg66
g67
sg68
I0
sg69
F90.0
sg70
g71
sg73
I8
sg74
F270.0
sg75
g76
sg81
F0.5
sg82
I8
sg83
F5.0
sg84
F0.0
sg85
I0
sg86
F0.65
sa(dp289
g4
F0.03
sg5
I63
sg6
g7
sg8
g9
sg12
I0
sg13
I55
sg14
F20.0
sg15
I2
sg16
F0.5
sg17
F0.15
sg18
F0.15
sg19
I0
sg20
g21
sg22
I1
sg23
g24
sg27
g28
sg29
F108.48783707618713
sg30
F0.945
sg31
I3
sg32
F0.2
sg33
I15
sg34
g35
sg36
F1.0
sg37
I75
sg38
I8
sg39
F0.75
sg40
g41
sg49
g128
(g129
(I0
tp290
g10
tp291
Rp292
(I1
(I6
tp293
g137
I00
S'\x00\x00\x00\x00\x00\x80f@\x00\x00\x00\x00\x00\x00\xf0\xbf\x88\x86a>51\xc7?\xb0\xaa\xa5\x0e\xac\x19\xe7?\x00\x00\x00\x00\x00\x00\x00\x00\x00\x00\x00\x00\x00\x00\x00\x00'
p294
tp295
bsg51
g54
sg55
F0.5
sg56
I128
sg57
g58
sg59
g60
sg61
g62
sg63
g64
sg65
F1.5
sg66
g67
sg68
I0
sg69
F90.0
sg70
g71
sg73
I8
sg74
F270.0
sg75
g76
sg81
F0.5
sg82
I8
sg83
F5.0
sg84
F0.0
sg85
I0
sg86
F0.65
sa(dp296
g4
F0.03
sg5
I63
sg6
g7
sg8
g9
sg12
I0
sg13
I55
sg14
F20.0
sg15
I2
sg16
F0.5
sg17
F0.15
sg18
F0.15
sg19
I0
sg20
g21
sg22
I1
sg23
g24
sg27
g28
sg29
F109.42747902870178
sg30
F0.945
sg31
I3
sg32
F0.2
sg33
I15
sg34
g35
sg36
F1.0
sg37
I75
sg38
I8
sg39
F0.75
sg40
g41
sg49
(lp297
sg51
g54
sg55
F0.5
sg56
I128
sg57
g58
sg59
g60
sg61
g62
sg63
g64
sg65
F1.5
sg66
g67
sg68
I0
sg69
F90.0
sg70
g71
sg73
I8
sg74
F270.0
sg75
g76
sg81
F0.5
sg82
I8
sg83
F5.0
sg84
F0.0
sg85
I0
sg86
F0.65
sa(dp298
g4
F0.03
sg5
I63
sg6
g7
sg8
g9
sg12
I0
sg13
I55
sg14
F20.0
sg15
I2
sg16
F0.5
sg17
F0.15
sg18
F0.15
sg19
I0
sg20
g21
sg22
I1
sg23
g24
sg27
g28
sg29
F110.3771550655365
sg30
F0.945
sg31
I3
sg32
F0.2
sg33
I15
sg34
g35
sg36
F1.0
sg37
I75
sg38
I8
sg39
F0.75
sg40
g41
sg49
g128
(g129
(I0
tp299
g10
tp300
Rp301
(I1
(I6
tp302
g137
I00
S'\x00\x00\x00\x00\x00\xf0n@\x00\x00\x00\x00\x00\x00\xf0\xbf\x88\x86a>51\xc7?\xb0\xaa\xa5\x0e\xac\x19\xe7?\x00\x00\x00\x00\x00\x00\x00\x00\x00\x00\x00\x00\x00\x00\x00\x00'
p303
tp304
bsg51
g54
sg55
F0.5
sg56
I128
sg57
g58
sg59
g60
sg61
g62
sg63
g64
sg65
F1.5
sg66
g67
sg68
I0
sg69
F90.0
sg70
g71
sg73
I8
sg74
F270.0
sg75
g76
sg81
F0.5
sg82
I8
sg83
F5.0
sg84
F0.0
sg85
I0
sg86
F0.65
sa(dp305
g4
F0.03
sg5
I63
sg6
g7
sg8
g9
sg12
I0
sg13
I55
sg14
F20.0
sg15
I2
sg16
F0.5
sg17
F0.15
sg18
F0.15
sg19
I0
sg20
g21
sg22
I1
sg23
g24
sg27
g28
sg29
F111.31697392463684
sg30
F0.945
sg31
I3
sg32
F0.2
sg33
I15
sg34
g35
sg36
F1.0
sg37
I75
sg38
I8
sg39
F0.75
sg40
g41
sg49
(lp306
sg51
g54
sg55
F0.5
sg56
I128
sg57
g58
sg59
g60
sg61
g62
sg63
g64
sg65
F1.5
sg66
g67
sg68
I0
sg69
F90.0
sg70
g71
sg73
I8
sg74
F270.0
sg75
g76
sg81
F0.5
sg82
I8
sg83
F5.0
sg84
F0.0
sg85
I0
sg86
F0.65
sa(dp307
g4
F0.03
sg5
I63
sg6
g7
sg8
g9
sg12
I0
sg13
I55
sg14
F20.0
sg15
I2
sg16
F0.5
sg17
F0.15
sg18
F0.15
sg19
I0
sg20
g21
sg22
I1
sg23
g24
sg27
g28
sg29
F112.25963592529297
sg30
F0.945
sg31
I3
sg32
F0.2
sg33
I15
sg34
g35
sg36
F1.0
sg37
I75
sg38
I8
sg39
F0.75
sg40
g41
sg49
(lp308
sg51
g54
sg55
F0.5
sg56
I128
sg57
g58
sg59
g60
sg61
g62
sg63
g64
sg65
F1.5
sg66
g67
sg68
I0
sg69
F90.0
sg70
g71
sg73
I8
sg74
F270.0
sg75
g76
sg81
F0.5
sg82
I8
sg83
F5.0
sg84
F0.0
sg85
I0
sg86
F0.65
sa(dp309
g4
F0.03
sg5
I63
sg6
g7
sg8
g9
sg12
I0
sg13
I55
sg14
F20.0
sg15
I2
sg16
F0.5
sg17
F0.15
sg18
F0.15
sg19
I0
sg20
g21
sg22
I1
sg23
g24
sg27
g28
sg29
F113.20621609687805
sg30
F0.945
sg31
I3
sg32
F0.2
sg33
I15
sg34
g35
sg36
F1.0
sg37
I75
sg38
I8
sg39
F0.75
sg40
g41
sg49
(lp310
sg51
g54
sg55
F0.5
sg56
I128
sg57
g58
sg59
g60
sg61
g62
sg63
g64
sg65
F1.5
sg66
g67
sg68
I0
sg69
F90.0
sg70
g71
sg73
I8
sg74
F270.0
sg75
g76
sg81
F0.5
sg82
I8
sg83
F5.0
sg84
F0.0
sg85
I0
sg86
F0.65
sa(dp311
g4
F0.03
sg5
I63
sg6
g7
sg8
g9
sg12
I0
sg13
I55
sg14
F20.0
sg15
I2
sg16
F0.5
sg17
F0.15
sg18
F0.15
sg19
I0
sg20
g21
sg22
I1
sg23
g24
sg27
g28
sg29
F114.15575194358826
sg30
F0.945
sg31
I3
sg32
F0.2
sg33
I15
sg34
g35
sg36
F1.0
sg37
I75
sg38
I8
sg39
F0.75
sg40
g41
sg49
g128
(g129
(I0
tp312
g10
tp313
Rp314
(I1
(I6
tp315
g137
I00
S'\x00\x00\x00\x00\x00\x80f@(\xfd\x95\xfe\x02;\xd4?N\x98v\x8a\xdb\xe8\xd3\xbfl\xcd\x82\xdd=\x90\xe7?\x00\x00\x00\x00\x00\x00\x00\x00\x00\x00\x00\x00\x00\x00\x00\x00'
p316
tp317
bsg51
g54
sg55
F0.5
sg56
I128
sg57
g58
sg59
g60
sg61
g62
sg63
g64
sg65
F1.5
sg66
g67
sg68
I0
sg69
F90.0
sg70
g71
sg73
I8
sg74
F270.0
sg75
g76
sg81
F0.5
sg82
I8
sg83
F5.0
sg84
F0.0
sg85
I0
sg86
F0.65
sa(dp318
g4
F0.03
sg5
I63
sg6
g7
sg8
g9
sg12
I0
sg13
I55
sg14
F20.0
sg15
I2
sg16
F0.5
sg17
F0.15
sg18
F0.15
sg19
I0
sg20
g21
sg22
I1
sg23
g24
sg27
g28
sg29
F115.0940990447998
sg30
F0.945
sg31
I3
sg32
F0.2
sg33
I15
sg34
g35
sg36
F1.0
sg37
I75
sg38
I8
sg39
F0.75
sg40
g41
sg49
(lp319
sg51
g54
sg55
F0.5
sg56
I128
sg57
g58
sg59
g60
sg61
g62
sg63
g64
sg65
F1.5
sg66
g67
sg68
I0
sg69
F90.0
sg70
g71
sg73
I8
sg74
F270.0
sg75
g76
sg81
F0.5
sg82
I8
sg83
F5.0
sg84
F0.0
sg85
I0
sg86
F0.65
sa(dp320
g4
F0.03
sg5
I63
sg6
g7
sg8
g9
sg12
I0
sg13
I55
sg14
F20.0
sg15
I2
sg16
F0.5
sg17
F0.15
sg18
F0.15
sg19
I0
sg20
g21
sg22
I1
sg23
g24
sg27
g28
sg29
F116.03926205635071
sg30
F0.945
sg31
I3
sg32
F0.2
sg33
I15
sg34
g35
sg36
F1.0
sg37
I75
sg38
I8
sg39
F0.75
sg40
g41
sg49
(lp321
sg51
g54
sg55
F0.5
sg56
I128
sg57
g58
sg59
g60
sg61
g62
sg63
g64
sg65
F1.5
sg66
g67
sg68
I0
sg69
F90.0
sg70
g71
sg73
I8
sg74
F270.0
sg75
g76
sg81
F0.5
sg82
I8
sg83
F5.0
sg84
F0.0
sg85
I0
sg86
F0.65
sa(dp322
g4
F0.03
sg5
I63
sg6
g7
sg8
g9
sg12
I0
sg13
I55
sg14
F20.0
sg15
I2
sg16
F0.5
sg17
F0.15
sg18
F0.15
sg19
I0
sg20
g21
sg22
I1
sg23
g24
sg27
g28
sg29
F116.98568105697632
sg30
F0.945
sg31
I3
sg32
F0.2
sg33
I15
sg34
g35
sg36
F1.0
sg37
I75
sg38
I8
sg39
F0.75
sg40
g41
sg49
(lp323
sg51
g54
sg55
F0.5
sg56
I128
sg57
g58
sg59
g60
sg61
g62
sg63
g64
sg65
F1.5
sg66
g67
sg68
I0
sg69
F90.0
sg70
g71
sg73
I8
sg74
F270.0
sg75
g76
sg81
F0.5
sg82
I8
sg83
F5.0
sg84
F0.0
sg85
I0
sg86
F0.65
sa(dp324
g4
F0.03
sg5
I63
sg6
g7
sg8
g9
sg12
I0
sg13
I55
sg14
F20.0
sg15
I2
sg16
F0.5
sg17
F0.15
sg18
F0.15
sg19
I0
sg20
g21
sg22
I1
sg23
g24
sg27
g28
sg29
F117.9365599155426
sg30
F0.945
sg31
I3
sg32
F0.2
sg33
I15
sg34
g35
sg36
F1.0
sg37
I75
sg38
I8
sg39
F0.75
sg40
g41
sg49
g128
(g129
(I0
tp325
g10
tp326
Rp327
(I1
(I6
tp328
g137
I00
S'\x00\x00\x00\x00\x00Pi@\x00\x00\x00\x00\x00\x00\xf0\xbf\xe0\xf5z1\x12\xd3\xa1?\x00\x00\x00\x00\x00\x00\xf0?\x00\x00\x00\x00\x00\x00\x00\x00\x00\x00\x00\x00\x00\x00\x00\x00'
p329
tp330
bsg51
g54
sg55
F0.5
sg56
I128
sg57
g58
sg59
g60
sg61
g62
sg63
g64
sg65
F1.5
sg66
g67
sg68
I0
sg69
F90.0
sg70
g71
sg73
I8
sg74
F270.0
sg75
g76
sg81
F0.5
sg82
I8
sg83
F5.0
sg84
F0.0
sg85
I0
sg86
F0.65
sa(dp331
g4
F0.03
sg5
I63
sg6
g7
sg8
g9
sg12
I0
sg13
I55
sg14
F20.0
sg15
I2
sg16
F0.5
sg17
F0.15
sg18
F0.15
sg19
I0
sg20
g21
sg22
I1
sg23
g24
sg27
g28
sg29
F118.87445592880249
sg30
F0.945
sg31
I3
sg32
F0.2
sg33
I15
sg34
g35
sg36
F1.0
sg37
I75
sg38
I8
sg39
F0.75
sg40
g41
sg49
(lp332
sg51
g54
sg55
F0.5
sg56
I128
sg57
g58
sg59
g60
sg61
g62
sg63
g64
sg65
F1.5
sg66
g67
sg68
I0
sg69
F90.0
sg70
g71
sg73
I8
sg74
F270.0
sg75
g76
sg81
F0.5
sg82
I8
sg83
F5.0
sg84
F0.0
sg85
I0
sg86
F0.65
sa(dp333
g4
F0.03
sg5
I63
sg6
g7
sg8
g9
sg12
I0
sg13
I55
sg14
F20.0
sg15
I2
sg16
F0.5
sg17
F0.15
sg18
F0.15
sg19
I0
sg20
g21
sg22
I1
sg23
g24
sg27
g28
sg29
F119.82522892951965
sg30
F0.945
sg31
I3
sg32
F0.2
sg33
I15
sg34
g35
sg36
F1.0
sg37
I75
sg38
I8
sg39
F0.75
sg40
g41
sg49
g128
(g129
(I0
tp334
g10
tp335
Rp336
(I1
(I6
tp337
g137
I00
S'\x00\x00\x00\x00\x00\xe0`@PMx\x12+\x80\xc8?\xd0\x88\xefwA\xdd\xab\xbf\x00\x00\x00\x00\x00\x00\xf0\xbf\x00\x00\x00\x00\x00\x00\x00\x00\x00\x00\x00\x00\x00\x00\x00\x00'
p338
tp339
bsg51
g54
sg55
F0.5
sg56
I128
sg57
g58
sg59
g60
sg61
g62
sg63
g64
sg65
F1.5
sg66
g67
sg68
I0
sg69
F90.0
sg70
g71
sg73
I8
sg74
F270.0
sg75
g76
sg81
F0.5
sg82
I8
sg83
F5.0
sg84
F0.0
sg85
I0
sg86
F0.65
sa(dp340
g4
F0.03
sg5
I63
sg6
g7
sg8
g9
sg12
I0
sg13
I55
sg14
F20.0
sg15
I2
sg16
F0.5
sg17
F0.15
sg18
F0.15
sg19
I0
sg20
g21
sg22
I1
sg23
g24
sg27
g28
sg29
F120.76517605781555
sg30
F0.945
sg31
I3
sg32
F0.2
sg33
I15
sg34
g35
sg36
F1.0
sg37
I75
sg38
I8
sg39
F0.75
sg40
g41
sg49
(lp341
sg51
g54
sg55
F0.5
sg56
I128
sg57
g58
sg59
g60
sg61
g62
sg63
g64
sg65
F1.5
sg66
g67
sg68
I0
sg69
F90.0
sg70
g71
sg73
I8
sg74
F270.0
sg75
g76
sg81
F0.5
sg82
I8
sg83
F5.0
sg84
F0.0
sg85
I0
sg86
F0.65
sa(dp342
g4
F0.03
sg5
I63
sg6
g7
sg8
g9
sg12
I0
sg13
I55
sg14
F20.0
sg15
I2
sg16
F0.5
sg17
F0.15
sg18
F0.15
sg19
I0
sg20
g21
sg22
I1
sg23
g24
sg27
g28
sg29
F121.7099220752716
sg30
F0.945
sg31
I3
sg32
F0.2
sg33
I15
sg34
g35
sg36
F1.0
sg37
I75
sg38
I8
sg39
F0.75
sg40
g41
sg49
(lp343
sg51
g54
sg55
F0.5
sg56
I128
sg57
g58
sg59
g60
sg61
g62
sg63
g64
sg65
F1.5
sg66
g67
sg68
I0
sg69
F90.0
sg70
g71
sg73
I8
sg74
F270.0
sg75
g76
sg81
F0.5
sg82
I8
sg83
F5.0
sg84
F0.0
sg85
I0
sg86
F0.65
sa(dp344
g4
F0.03
sg5
I63
sg6
g7
sg8
g9
sg12
I0
sg13
I55
sg14
F20.0
sg15
I2
sg16
F0.5
sg17
F0.15
sg18
F0.15
sg19
I0
sg20
g21
sg22
I1
sg23
g24
sg27
g28
sg29
F122.65536594390869
sg30
F0.945
sg31
I3
sg32
F0.2
sg33
I15
sg34
g35
sg36
F1.0
sg37
I75
sg38
I8
sg39
F0.75
sg40
g41
sg49
(lp345
sg51
g54
sg55
F0.5
sg56
I128
sg57
g58
sg59
g60
sg61
g62
sg63
g64
sg65
F1.5
sg66
g67
sg68
I0
sg69
F90.0
sg70
g71
sg73
I8
sg74
F270.0
sg75
g76
sg81
F0.5
sg82
I8
sg83
F5.0
sg84
F0.0
sg85
I0
sg86
F0.65
sa(dp346
g4
F0.03
sg5
I63
sg6
g7
sg8
g9
sg12
I0
sg13
I55
sg14
F20.0
sg15
I2
sg16
F0.5
sg17
F0.15
sg18
F0.15
sg19
I0
sg20
g21
sg22
I1
sg23
g24
sg27
g28
sg29
F123.60423493385315
sg30
F0.945
sg31
I3
sg32
F0.2
sg33
I15
sg34
g35
sg36
F1.0
sg37
I75
sg38
I8
sg39
F0.75
sg40
g41
sg49
g128
(g129
(I0
tp347
g10
tp348
Rp349
(I1
(I6
tp350
g137
I00
S'\x00\x00\x00\x00\x00 l@\x00\x00\x00\x00\x00\x00\xf0\xbfP\xbf\x14\xf1\xc8\n\xc9?\xd0\xfd\xf34\xff\xcd\xa9\xbf\x00\x00\x00\x00\x00\x00\x00\x00\x00\x00\x00\x00\x00\x00\x00\x00'
p351
tp352
bsg51
g54
sg55
F0.5
sg56
I128
sg57
g58
sg59
g60
sg61
g62
sg63
g64
sg65
F1.5
sg66
g67
sg68
I0
sg69
F90.0
sg70
g71
sg73
I8
sg74
F270.0
sg75
g76
sg81
F0.5
sg82
I8
sg83
F5.0
sg84
F0.0
sg85
I0
sg86
F0.65
sa(dp353
g4
F0.03
sg5
I63
sg6
g7
sg8
g9
sg12
I0
sg13
I55
sg14
F20.0
sg15
I2
sg16
F0.5
sg17
F0.15
sg18
F0.15
sg19
I0
sg20
g21
sg22
I1
sg23
g24
sg27
g28
sg29
F124.54413890838623
sg30
F0.945
sg31
I3
sg32
F0.2
sg33
I15
sg34
g35
sg36
F1.0
sg37
I75
sg38
I8
sg39
F0.75
sg40
g41
sg49
(lp354
sg51
g54
sg55
F0.5
sg56
I128
sg57
g58
sg59
g60
sg61
g62
sg63
g64
sg65
F1.5
sg66
g67
sg68
I0
sg69
F90.0
sg70
g71
sg73
I8
sg74
F270.0
sg75
g76
sg81
F0.5
sg82
I8
sg83
F5.0
sg84
F0.0
sg85
I0
sg86
F0.65
sa(dp355
g4
F0.03
sg5
I63
sg6
g7
sg8
g9
sg12
I0
sg13
I55
sg14
F20.0
sg15
I2
sg16
F0.5
sg17
F0.15
sg18
F0.15
sg19
I0
sg20
g21
sg22
I1
sg23
g24
sg27
g28
sg29
F125.48855590820312
sg30
F0.945
sg31
I3
sg32
F0.2
sg33
I15
sg34
g35
sg36
F1.0
sg37
I75
sg38
I8
sg39
F0.75
sg40
g41
sg49
(lp356
sg51
g54
sg55
F0.5
sg56
I128
sg57
g58
sg59
g60
sg61
g62
sg63
g64
sg65
F1.5
sg66
g67
sg68
I0
sg69
F90.0
sg70
g71
sg73
I8
sg74
F270.0
sg75
g76
sg81
F0.5
sg82
I8
sg83
F5.0
sg84
F0.0
sg85
I0
sg86
F0.65
sa(dp357
g4
F0.03
sg5
I63
sg6
g7
sg8
g9
sg12
I0
sg13
I55
sg14
F20.0
sg15
I2
sg16
F0.5
sg17
F0.15
sg18
F0.15
sg19
I0
sg20
g21
sg22
I1
sg23
g24
sg27
g28
sg29
F126.43478107452393
sg30
F0.945
sg31
I3
sg32
F0.2
sg33
I15
sg34
g35
sg36
F1.0
sg37
I75
sg38
I8
sg39
F0.75
sg40
g41
sg49
(lp358
sg51
g54
sg55
F0.5
sg56
I128
sg57
g58
sg59
g60
sg61
g62
sg63
g64
sg65
F1.5
sg66
g67
sg68
I0
sg69
F90.0
sg70
g71
sg73
I8
sg74
F270.0
sg75
g76
sg81
F0.5
sg82
I8
sg83
F5.0
sg84
F0.0
sg85
I0
sg86
F0.65
sa(dp359
g4
F0.03
sg5
I63
sg6
g7
sg8
g9
sg12
I0
sg13
I55
sg14
F20.0
sg15
I2
sg16
F0.5
sg17
F0.15
sg18
F0.15
sg19
I0
sg20
g21
sg22
I1
sg23
g24
sg27
g28
sg29
F127.37908792495728
sg30
F0.945
sg31
I3
sg32
F0.2
sg33
I15
sg34
g35
sg36
F1.0
sg37
I75
sg38
I8
sg39
F0.75
sg40
g41
sg49
(lp360
sg51
g54
sg55
F0.5
sg56
I128
sg57
g58
sg59
g60
sg61
g62
sg63
g64
sg65
F1.5
sg66
g67
sg68
I0
sg69
F90.0
sg70
g71
sg73
I8
sg74
F270.0
sg75
g76
sg81
F0.5
sg82
I8
sg83
F5.0
sg84
F0.0
sg85
I0
sg86
F0.65
sa(dp361
g4
F0.03
sg5
I63
sg6
g7
sg8
g9
sg12
I0
sg13
I55
sg14
F20.0
sg15
I2
sg16
F0.5
sg17
F0.15
sg18
F0.15
sg19
I0
sg20
g21
sg22
I1
sg23
g24
sg27
g28
sg29
F128.32446002960205
sg30
F0.945
sg31
I3
sg32
F0.2
sg33
I15
sg34
g35
sg36
F1.0
sg37
I75
sg38
I8
sg39
F0.75
sg40
g41
sg49
(lp362
sg51
g54
sg55
F0.5
sg56
I128
sg57
g58
sg59
g60
sg61
g62
sg63
g64
sg65
F1.5
sg66
g67
sg68
I0
sg69
F90.0
sg70
g71
sg73
I8
sg74
F270.0
sg75
g76
sg81
F0.5
sg82
I8
sg83
F5.0
sg84
F0.0
sg85
I0
sg86
F0.65
sa(dp363
g4
F0.03
sg5
I63
sg6
g7
sg8
g9
sg12
I0
sg13
I55
sg14
F20.0
sg15
I2
sg16
F0.5
sg17
F0.15
sg18
F0.15
sg19
I0
sg20
g21
sg22
I1
sg23
g24
sg27
g28
sg29
F129.268639087677
sg30
F0.945
sg31
I3
sg32
F0.2
sg33
I15
sg34
g35
sg36
F1.0
sg37
I75
sg38
I8
sg39
F0.75
sg40
g41
sg49
(lp364
sg51
g54
sg55
F0.5
sg56
I128
sg57
g58
sg59
g60
sg61
g62
sg63
g64
sg65
F1.5
sg66
g67
sg68
I0
sg69
F90.0
sg70
g71
sg73
I8
sg74
F270.0
sg75
g76
sg81
F0.5
sg82
I8
sg83
F5.0
sg84
F0.0
sg85
I0
sg86
F0.65
sa(dp365
g4
F0.03
sg5
I63
sg6
g7
sg8
g9
sg12
I0
sg13
I55
sg14
F20.0
sg15
I2
sg16
F0.5
sg17
F0.15
sg18
F0.15
sg19
I0
sg20
g21
sg22
I1
sg23
g24
sg27
g28
sg29
F130.21348190307617
sg30
F0.945
sg31
I3
sg32
F0.2
sg33
I15
sg34
g35
sg36
F1.0
sg37
I75
sg38
I8
sg39
F0.75
sg40
g41
sg49
(lp366
sg51
g54
sg55
F0.5
sg56
I128
sg57
g58
sg59
g60
sg61
g62
sg63
g64
sg65
F1.5
sg66
g67
sg68
I0
sg69
F90.0
sg70
g71
sg73
I8
sg74
F270.0
sg75
g76
sg81
F0.5
sg82
I8
sg83
F5.0
sg84
F0.0
sg85
I0
sg86
F0.65
sa(dp367
g4
F0.03
sg5
I63
sg6
g7
sg8
g9
sg12
I0
sg13
I55
sg14
F20.0
sg15
I2
sg16
F0.5
sg17
F0.15
sg18
F0.15
sg19
I0
sg20
g21
sg22
I1
sg23
g24
sg27
g28
sg29
F131.16290807724
sg30
F0.945
sg31
I3
sg32
F0.2
sg33
I15
sg34
g35
sg36
F1.0
sg37
I75
sg38
I8
sg39
F0.75
sg40
g41
sg49
g128
(g129
(I0
tp368
g10
tp369
Rp370
(I1
(I6
tp371
g137
I00
S'\x00\x00\x00\x00\x00\xf0n@\xb2\xf2\x90\x1b=l\xec?\xe6L\x16\x9b\xaa`\xe5\xbf\xc0\x1e\xa8cy_\x87\xbf\x00\x00\x00\x00\x00\x00\x00\x00\x00\x00\x00\x00\x00\x00\x00\x00'
p372
tp373
bsg51
g54
sg55
F0.5
sg56
I128
sg57
g58
sg59
g60
sg61
g62
sg63
g64
sg65
F1.5
sg66
g67
sg68
I0
sg69
F90.0
sg70
g71
sg73
I8
sg74
F270.0
sg75
g76
sg81
F0.5
sg82
I8
sg83
F5.0
sg84
F0.0
sg85
I0
sg86
F0.65
sa(dp374
g4
F0.03
sg5
I63
sg6
g7
sg8
g9
sg12
I0
sg13
I55
sg14
F20.0
sg15
I2
sg16
F0.5
sg17
F0.15
sg18
F0.15
sg19
I0
sg20
g21
sg22
I1
sg23
g24
sg27
g28
sg29
F132.10366201400757
sg30
F0.945
sg31
I3
sg32
F0.2
sg33
I15
sg34
g35
sg36
F1.0
sg37
I75
sg38
I8
sg39
F0.75
sg40
g41
sg49
(lp375
sg51
g54
sg55
F0.5
sg56
I128
sg57
g58
sg59
g60
sg61
g62
sg63
g64
sg65
F1.5
sg66
g67
sg68
I0
sg69
F90.0
sg70
g71
sg73
I8
sg74
F270.0
sg75
g76
sg81
F0.5
sg82
I8
sg83
F5.0
sg84
F0.0
sg85
I0
sg86
F0.65
sa(dp376
g4
F0.03
sg5
I63
sg6
g7
sg8
g9
sg12
I0
sg13
I55
sg14
F20.0
sg15
I2
sg16
F0.5
sg17
F0.15
sg18
F0.15
sg19
I0
sg20
g21
sg22
I1
sg23
g24
sg27
g28
sg29
F133.05272889137268
sg30
F0.945
sg31
I3
sg32
F0.2
sg33
I15
sg34
g35
sg36
F1.0
sg37
I75
sg38
I8
sg39
F0.75
sg40
g41
sg49
g128
(g129
(I0
tp377
g10
tp378
Rp379
(I1
(I6
tp380
g137
I00
S'\x00\x00\x00\x00\x00\x80V@\x00\x00\x00\x00\x00\x00\xf0\xbf\x88\x86a>51\xc7?\xb0\xaa\xa5\x0e\xac\x19\xe7?\x00\x00\x00\x00\x00\x00\x00\x00\x00\x00\x00\x00\x00\x00\x00\x00'
p381
tp382
bsg51
g54
sg55
F0.5
sg56
I128
sg57
g58
sg59
g60
sg61
g62
sg63
g64
sg65
F1.5
sg66
g67
sg68
I0
sg69
F90.0
sg70
g71
sg73
I8
sg74
F270.0
sg75
g76
sg81
F0.5
sg82
I8
sg83
F5.0
sg84
F0.0
sg85
I0
sg86
F0.65
sa(dp383
g4
F0.03
sg5
I63
sg6
g7
sg8
g9
sg12
I0
sg13
I55
sg14
F20.0
sg15
I2
sg16
F0.5
sg17
F0.15
sg18
F0.15
sg19
I0
sg20
g21
sg22
I1
sg23
g24
sg27
g28
sg29
F133.99191093444824
sg30
F0.945
sg31
I3
sg32
F0.2
sg33
I15
sg34
g35
sg36
F1.0
sg37
I75
sg38
I8
sg39
F0.75
sg40
g41
sg49
(lp384
sg51
g54
sg55
F0.5
sg56
I128
sg57
g58
sg59
g60
sg61
g62
sg63
g64
sg65
F1.5
sg66
g67
sg68
I0
sg69
F90.0
sg70
g71
sg73
I8
sg74
F270.0
sg75
g76
sg81
F0.5
sg82
I8
sg83
F5.0
sg84
F0.0
sg85
I0
sg86
F0.65
sa(dp385
g4
F0.03
sg5
I63
sg6
g7
sg8
g9
sg12
I0
sg13
I55
sg14
F20.0
sg15
I2
sg16
F0.5
sg17
F0.15
sg18
F0.15
sg19
I0
sg20
g21
sg22
I1
sg23
g24
sg27
g28
sg29
F134.9432020187378
sg30
F0.945
sg31
I3
sg32
F0.2
sg33
I15
sg34
g35
sg36
F1.0
sg37
I75
sg38
I8
sg39
F0.75
sg40
g41
sg49
g128
(g129
(I0
tp386
g10
tp387
Rp388
(I1
(I6
tp389
g137
I00
S'\x00\x00\x00\x00\x00 l@\x00\x00\x00\x00\x00\x00\xf0\xbf\xe0\xf5z1\x12\xd3\xa1?\x00\x00\x00\x00\x00\x00\xf0?\x00\x00\x00\x00\x00\x00\x00\x00\x00\x00\x00\x00\x00\x00\x00\x00'
p390
tp391
bsg51
g54
sg55
F0.5
sg56
I128
sg57
g58
sg59
g60
sg61
g62
sg63
g64
sg65
F1.5
sg66
g67
sg68
I0
sg69
F90.0
sg70
g71
sg73
I8
sg74
F270.0
sg75
g76
sg81
F0.5
sg82
I8
sg83
F5.0
sg84
F0.0
sg85
I0
sg86
F0.65
sa(dp392
g4
F0.03
sg5
I63
sg6
g7
sg8
g9
sg12
I0
sg13
I55
sg14
F20.0
sg15
I2
sg16
F0.5
sg17
F0.15
sg18
F0.15
sg19
I0
sg20
g21
sg22
I1
sg23
g24
sg27
g28
sg29
F135.88225507736206
sg30
F0.945
sg31
I3
sg32
F0.2
sg33
I15
sg34
g35
sg36
F1.0
sg37
I75
sg38
I8
sg39
F0.75
sg40
g41
sg49
(lp393
sg51
g54
sg55
F0.5
sg56
I128
sg57
g58
sg59
g60
sg61
g62
sg63
g64
sg65
F1.5
sg66
g67
sg68
I0
sg69
F90.0
sg70
g71
sg73
I8
sg74
F270.0
sg75
g76
sg81
F0.5
sg82
I8
sg83
F5.0
sg84
F0.0
sg85
I0
sg86
F0.65
sa(dp394
g4
F0.03
sg5
I63
sg6
g7
sg8
g9
sg12
I0
sg13
I55
sg14
F20.0
sg15
I2
sg16
F0.5
sg17
F0.15
sg18
F0.15
sg19
I0
sg20
g21
sg22
I1
sg23
g24
sg27
g28
sg29
F136.8273410797119
sg30
F0.945
sg31
I3
sg32
F0.2
sg33
I15
sg34
g35
sg36
F1.0
sg37
I75
sg38
I8
sg39
F0.75
sg40
g41
sg49
(lp395
sg51
g54
sg55
F0.5
sg56
I128
sg57
g58
sg59
g60
sg61
g62
sg63
g64
sg65
F1.5
sg66
g67
sg68
I0
sg69
F90.0
sg70
g71
sg73
I8
sg74
F270.0
sg75
g76
sg81
F0.5
sg82
I8
sg83
F5.0
sg84
F0.0
sg85
I0
sg86
F0.65
sa(dp396
g4
F0.03
sg5
I63
sg6
g7
sg8
g9
sg12
I0
sg13
I55
sg14
F20.0
sg15
I2
sg16
F0.5
sg17
F0.15
sg18
F0.15
sg19
I0
sg20
g21
sg22
I1
sg23
g24
sg27
g28
sg29
F137.77270007133484
sg30
F0.945
sg31
I3
sg32
F0.2
sg33
I15
sg34
g35
sg36
F1.0
sg37
I75
sg38
I8
sg39
F0.75
sg40
g41
sg49
(lp397
sg51
g54
sg55
F0.5
sg56
I128
sg57
g58
sg59
g60
sg61
g62
sg63
g64
sg65
F1.5
sg66
g67
sg68
I0
sg69
F90.0
sg70
g71
sg73
I8
sg74
F270.0
sg75
g76
sg81
F0.5
sg82
I8
sg83
F5.0
sg84
F0.0
sg85
I0
sg86
F0.65
sa(dp398
g4
F0.03
sg5
I63
sg6
g7
sg8
g9
sg12
I0
sg13
I55
sg14
F20.0
sg15
I2
sg16
F0.5
sg17
F0.15
sg18
F0.15
sg19
I0
sg20
g21
sg22
I1
sg23
g24
sg27
g28
sg29
F138.71598887443542
sg30
F0.945
sg31
I3
sg32
F0.2
sg33
I15
sg34
g35
sg36
F1.0
sg37
I75
sg38
I8
sg39
F0.75
sg40
g41
sg49
(lp399
sg51
g54
sg55
F0.5
sg56
I128
sg57
g58
sg59
g60
sg61
g62
sg63
g64
sg65
F1.5
sg66
g67
sg68
I0
sg69
F90.0
sg70
g71
sg73
I8
sg74
F270.0
sg75
g76
sg81
F0.5
sg82
I8
sg83
F5.0
sg84
F0.0
sg85
I0
sg86
F0.65
sa(dp400
g4
F0.03
sg5
I63
sg6
g7
sg8
g9
sg12
I0
sg13
I55
sg14
F20.0
sg15
I2
sg16
F0.5
sg17
F0.15
sg18
F0.15
sg19
I0
sg20
g21
sg22
I1
sg23
g24
sg27
g28
sg29
F139.66234493255615
sg30
F0.945
sg31
I3
sg32
F0.2
sg33
I15
sg34
g35
sg36
F1.0
sg37
I75
sg38
I8
sg39
F0.75
sg40
g41
sg49
(lp401
sg51
g54
sg55
F0.5
sg56
I128
sg57
g58
sg59
g60
sg61
g62
sg63
g64
sg65
F1.5
sg66
g67
sg68
I0
sg69
F90.0
sg70
g71
sg73
I8
sg74
F270.0
sg75
g76
sg81
F0.5
sg82
I8
sg83
F5.0
sg84
F0.0
sg85
I0
sg86
F0.65
sa(dp402
g4
F0.03
sg5
I63
sg6
g7
sg8
g9
sg12
I0
sg13
I55
sg14
F20.0
sg15
I2
sg16
F0.5
sg17
F0.15
sg18
F0.15
sg19
I0
sg20
g21
sg22
I1
sg23
g24
sg27
g28
sg29
F140.60663294792175
sg30
F0.945
sg31
I3
sg32
F0.2
sg33
I15
sg34
g35
sg36
F1.0
sg37
I75
sg38
I8
sg39
F0.75
sg40
g41
sg49
(lp403
sg51
g54
sg55
F0.5
sg56
I128
sg57
g58
sg59
g60
sg61
g62
sg63
g64
sg65
F1.5
sg66
g67
sg68
I0
sg69
F90.0
sg70
g71
sg73
I8
sg74
F270.0
sg75
g76
sg81
F0.5
sg82
I8
sg83
F5.0
sg84
F0.0
sg85
I0
sg86
F0.65
sa(dp404
g4
F0.03
sg5
I63
sg6
g7
sg8
g9
sg12
I0
sg13
I55
sg14
F20.0
sg15
I2
sg16
F0.5
sg17
F0.15
sg18
F0.15
sg19
I0
sg20
g21
sg22
I1
sg23
g24
sg27
g28
sg29
F141.55152297019958
sg30
F0.945
sg31
I3
sg32
F0.2
sg33
I15
sg34
g35
sg36
F1.0
sg37
I75
sg38
I8
sg39
F0.75
sg40
g41
sg49
(lp405
sg51
g54
sg55
F0.5
sg56
I128
sg57
g58
sg59
g60
sg61
g62
sg63
g64
sg65
F1.5
sg66
g67
sg68
I0
sg69
F90.0
sg70
g71
sg73
I8
sg74
F270.0
sg75
g76
sg81
F0.5
sg82
I8
sg83
F5.0
sg84
F0.0
sg85
I0
sg86
F0.65
sa(dp406
g4
F0.03
sg5
I63
sg6
g7
sg8
g9
sg12
I0
sg13
I55
sg14
F20.0
sg15
I2
sg16
F0.5
sg17
F0.15
sg18
F0.15
sg19
I0
sg20
g21
sg22
I1
sg23
g24
sg27
g28
sg29
F142.5014340877533
sg30
F0.945
sg31
I3
sg32
F0.2
sg33
I15
sg34
g35
sg36
F1.0
sg37
I75
sg38
I8
sg39
F0.75
sg40
g41
sg49
g128
(g129
(I0
tp407
g10
tp408
Rp409
(I1
(I6
tp410
g137
I00
S'\x00\x00\x00\x00\x00\xb0c@&\x95\xa5\xadY)\xe7\xbf@1a0\xd2\xbc\xc0?2\x05b\xe8&\x1a\xec\xbf\x00\x00\x00\x00\x00\x00\x00\x00\x00\x00\x00\x00\x00\x00\x00\x00'
p411
tp412
bsg51
g54
sg55
F0.5
sg56
I128
sg57
g58
sg59
g60
sg61
g62
sg63
g64
sg65
F1.5
sg66
g67
sg68
I0
sg69
F90.0
sg70
g71
sg73
I8
sg74
F270.0
sg75
g76
sg81
F0.5
sg82
I8
sg83
F5.0
sg84
F0.0
sg85
I0
sg86
F0.65
sa(dp413
g4
F0.03
sg5
I63
sg6
g7
sg8
g9
sg12
I0
sg13
I55
sg14
F20.0
sg15
I2
sg16
F0.5
sg17
F0.15
sg18
F0.15
sg19
I0
sg20
g21
sg22
I1
sg23
g24
sg27
g28
sg29
F143.44167590141296
sg30
F0.945
sg31
I3
sg32
F0.2
sg33
I15
sg34
g35
sg36
F1.0
sg37
I75
sg38
I8
sg39
F0.75
sg40
g41
sg49
(lp414
sg51
g54
sg55
F0.5
sg56
I128
sg57
g58
sg59
g60
sg61
g62
sg63
g64
sg65
F1.5
sg66
g67
sg68
I0
sg69
F90.0
sg70
g71
sg73
I8
sg74
F270.0
sg75
g76
sg81
F0.5
sg82
I8
sg83
F5.0
sg84
F0.0
sg85
I0
sg86
F0.65
sa(dp415
g4
F0.03
sg5
I63
sg6
g7
sg8
g9
sg12
I0
sg13
I55
sg14
F20.0
sg15
I2
sg16
F0.5
sg17
F0.15
sg18
F0.15
sg19
I0
sg20
g21
sg22
I1
sg23
g24
sg27
g28
sg29
F144.39011693000793
sg30
F0.945
sg31
I3
sg32
F0.2
sg33
I15
sg34
g35
sg36
F1.0
sg37
I75
sg38
I8
sg39
F0.75
sg40
g41
sg49
g128
(g129
(I0
tp416
g10
tp417
Rp418
(I1
(I6
tp419
g137
I00
S'\x00\x00\x00\x00\x00\xb0c@PMx\x12+\x80\xc8?\xd0\x88\xefwA\xdd\xab\xbf\x00\x00\x00\x00\x00\x00\xf0\xbf\x00\x00\x00\x00\x00\x00\x00\x00\x00\x00\x00\x00\x00\x00\x00\x00'
p420
tp421
bsg51
g54
sg55
F0.5
sg56
I128
sg57
g58
sg59
g60
sg61
g62
sg63
g64
sg65
F1.5
sg66
g67
sg68
I0
sg69
F90.0
sg70
g71
sg73
I8
sg74
F270.0
sg75
g76
sg81
F0.5
sg82
I8
sg83
F5.0
sg84
F0.0
sg85
I0
sg86
F0.65
sa(dp422
g4
F0.03
sg5
I63
sg6
g7
sg8
g9
sg12
I0
sg13
I55
sg14
F20.0
sg15
I2
sg16
F0.5
sg17
F0.15
sg18
F0.15
sg19
I0
sg20
g21
sg22
I1
sg23
g24
sg27
g28
sg29
F145.33096289634705
sg30
F0.945
sg31
I3
sg32
F0.2
sg33
I15
sg34
g35
sg36
F1.0
sg37
I75
sg38
I8
sg39
F0.75
sg40
g41
sg49
(lp423
sg51
g54
sg55
F0.5
sg56
I128
sg57
g58
sg59
g60
sg61
g62
sg63
g64
sg65
F1.5
sg66
g67
sg68
I0
sg69
F90.0
sg70
g71
sg73
I8
sg74
F270.0
sg75
g76
sg81
F0.5
sg82
I8
sg83
F5.0
sg84
F0.0
sg85
I0
sg86
F0.65
sa(dp424
g4
F0.03
sg5
I63
sg6
g7
sg8
g9
sg12
I0
sg13
I55
sg14
F20.0
sg15
I2
sg16
F0.5
sg17
F0.15
sg18
F0.15
sg19
I0
sg20
g21
sg22
I1
sg23
g24
sg27
g28
sg29
F146.28316497802734
sg30
F0.945
sg31
I3
sg32
F0.2
sg33
I15
sg34
g35
sg36
F1.0
sg37
I75
sg38
I8
sg39
F0.75
sg40
g41
sg49
g128
(g129
(I0
tp425
g10
tp426
Rp427
(I1
(I6
tp428
g137
I00
S'\x00\x00\x00\x00\x00Pi@\xac\xbbn\xc9\xffF\xe8?\x02\x07\x8d\xd9\x12\xe8\xd9\xbf\xdcP\xaf\x11T\x07\xe8\xbf\x00\x00\x00\x00\x00\x00\x00\x00\x00\x00\x00\x00\x00\x00\x00\x00'
p429
tp430
bsg51
g54
sg55
F0.5
sg56
I128
sg57
g58
sg59
g60
sg61
g62
sg63
g64
sg65
F1.5
sg66
g67
sg68
I0
sg69
F90.0
sg70
g71
sg73
I8
sg74
F270.0
sg75
g76
sg81
F0.5
sg82
I8
sg83
F5.0
sg84
F0.0
sg85
I0
sg86
F0.65
sa(dp431
g4
F0.03
sg5
I63
sg6
g7
sg8
g9
sg12
I0
sg13
I55
sg14
F20.0
sg15
I2
sg16
F0.5
sg17
F0.15
sg18
F0.15
sg19
I0
sg20
g21
sg22
I1
sg23
g24
sg27
g28
sg29
F147.22052097320557
sg30
F0.945
sg31
I3
sg32
F0.2
sg33
I15
sg34
g35
sg36
F1.0
sg37
I75
sg38
I8
sg39
F0.75
sg40
g41
sg49
(lp432
sg51
g54
sg55
F0.5
sg56
I128
sg57
g58
sg59
g60
sg61
g62
sg63
g64
sg65
F1.5
sg66
g67
sg68
I0
sg69
F90.0
sg70
g71
sg73
I8
sg74
F270.0
sg75
g76
sg81
F0.5
sg82
I8
sg83
F5.0
sg84
F0.0
sg85
I0
sg86
F0.65
sa(dp433
g4
F0.03
sg5
I63
sg6
g7
sg8
g9
sg12
I0
sg13
I55
sg14
F20.0
sg15
I2
sg16
F0.5
sg17
F0.15
sg18
F0.15
sg19
I0
sg20
g21
sg22
I1
sg23
g24
sg27
g28
sg29
F148.16653299331665
sg30
F0.945
sg31
I3
sg32
F0.2
sg33
I15
sg34
g35
sg36
F1.0
sg37
I75
sg38
I8
sg39
F0.75
sg40
g41
sg49
(lp434
sg51
g54
sg55
F0.5
sg56
I128
sg57
g58
sg59
g60
sg61
g62
sg63
g64
sg65
F1.5
sg66
g67
sg68
I0
sg69
F90.0
sg70
g71
sg73
I8
sg74
F270.0
sg75
g76
sg81
F0.5
sg82
I8
sg83
F5.0
sg84
F0.0
sg85
I0
sg86
F0.65
sa(dp435
g4
F0.03
sg5
I63
sg6
g7
sg8
g9
sg12
I0
sg13
I55
sg14
F20.0
sg15
I2
sg16
F0.5
sg17
F0.15
sg18
F0.15
sg19
I0
sg20
g21
sg22
I1
sg23
g24
sg27
g28
sg29
F149.10996890068054
sg30
F0.945
sg31
I3
sg32
F0.2
sg33
I15
sg34
g35
sg36
F1.0
sg37
I75
sg38
I8
sg39
F0.75
sg40
g41
sg49
(lp436
sg51
g54
sg55
F0.5
sg56
I128
sg57
g58
sg59
g60
sg61
g62
sg63
g64
sg65
F1.5
sg66
g67
sg68
I0
sg69
F90.0
sg70
g71
sg73
I8
sg74
F270.0
sg75
g76
sg81
F0.5
sg82
I8
sg83
F5.0
sg84
F0.0
sg85
I0
sg86
F0.65
sa(dp437
g4
F0.03
sg5
I63
sg6
g7
sg8
g9
sg12
I0
sg13
I55
sg14
F20.0
sg15
I2
sg16
F0.5
sg17
F0.15
sg18
F0.15
sg19
I0
sg20
g21
sg22
I1
sg23
g24
sg27
g28
sg29
F150.05883598327637
sg30
F0.945
sg31
I3
sg32
F0.2
sg33
I15
sg34
g35
sg36
F1.0
sg37
I75
sg38
I8
sg39
F0.75
sg40
g41
sg49
g128
(g129
(I0
tp438
g10
tp439
Rp440
(I1
(I6
tp441
g137
I00
S'\x00\x00\x00\x00\x00\xe0`@(\xfd\x95\xfe\x02;\xd4?N\x98v\x8a\xdb\xe8\xd3\xbfl\xcd\x82\xdd=\x90\xe7?\x00\x00\x00\x00\x00\x00\x00\x00\x00\x00\x00\x00\x00\x00\x00\x00'
p442
tp443
bsg51
g54
sg55
F0.5
sg56
I128
sg57
g58
sg59
g60
sg61
g62
sg63
g64
sg65
F1.5
sg66
g67
sg68
I0
sg69
F90.0
sg70
g71
sg73
I8
sg74
F270.0
sg75
g76
sg81
F0.5
sg82
I8
sg83
F5.0
sg84
F0.0
sg85
I0
sg86
F0.65
sa(dp444
g4
F0.03
sg5
I63
sg6
g7
sg8
g9
sg12
I0
sg13
I55
sg14
F20.0
sg15
I2
sg16
F0.5
sg17
F0.15
sg18
F0.15
sg19
I0
sg20
g21
sg22
I1
sg23
g24
sg27
g28
sg29
F151.000874042511
sg30
F0.945
sg31
I3
sg32
F0.2
sg33
I15
sg34
g35
sg36
F1.0
sg37
I75
sg38
I8
sg39
F0.75
sg40
g41
sg49
(lp445
sg51
g54
sg55
F0.5
sg56
I128
sg57
g58
sg59
g60
sg61
g62
sg63
g64
sg65
F1.5
sg66
g67
sg68
I0
sg69
F90.0
sg70
g71
sg73
I8
sg74
F270.0
sg75
g76
sg81
F0.5
sg82
I8
sg83
F5.0
sg84
F0.0
sg85
I0
sg86
F0.65
sa(dp446
g4
F0.03
sg5
I63
sg6
g7
sg8
g9
sg12
I0
sg13
I55
sg14
F20.0
sg15
I2
sg16
F0.5
sg17
F0.15
sg18
F0.15
sg19
I0
sg20
g21
sg22
I1
sg23
g24
sg27
g28
sg29
F151.94532203674316
sg30
F0.945
sg31
I3
sg32
F0.2
sg33
I15
sg34
g35
sg36
F1.0
sg37
I75
sg38
I8
sg39
F0.75
sg40
g41
sg49
(lp447
sg51
g54
sg55
F0.5
sg56
I128
sg57
g58
sg59
g60
sg61
g62
sg63
g64
sg65
F1.5
sg66
g67
sg68
I0
sg69
F90.0
sg70
g71
sg73
I8
sg74
F270.0
sg75
g76
sg81
F0.5
sg82
I8
sg83
F5.0
sg84
F0.0
sg85
I0
sg86
F0.65
sa(dp448
g4
F0.03
sg5
I63
sg6
g7
sg8
g9
sg12
I0
sg13
I55
sg14
F20.0
sg15
I2
sg16
F0.5
sg17
F0.15
sg18
F0.15
sg19
I0
sg20
g21
sg22
I1
sg23
g24
sg27
g28
sg29
F152.89046692848206
sg30
F0.945
sg31
I3
sg32
F0.2
sg33
I15
sg34
g35
sg36
F1.0
sg37
I75
sg38
I8
sg39
F0.75
sg40
g41
sg49
(lp449
sg51
g54
sg55
F0.5
sg56
I128
sg57
g58
sg59
g60
sg61
g62
sg63
g64
sg65
F1.5
sg66
g67
sg68
I0
sg69
F90.0
sg70
g71
sg73
I8
sg74
F270.0
sg75
g76
sg81
F0.5
sg82
I8
sg83
F5.0
sg84
F0.0
sg85
I0
sg86
F0.65
sa(dp450
g4
F0.03
sg5
I63
sg6
g7
sg8
g9
sg12
I0
sg13
I55
sg14
F20.0
sg15
I2
sg16
F0.5
sg17
F0.15
sg18
F0.15
sg19
I0
sg20
g21
sg22
I1
sg23
g24
sg27
g28
sg29
F153.83586192131042
sg30
F0.945
sg31
I3
sg32
F0.2
sg33
I15
sg34
g35
sg36
F1.0
sg37
I75
sg38
I8
sg39
F0.75
sg40
g41
sg49
(lp451
sg51
g54
sg55
F0.5
sg56
I128
sg57
g58
sg59
g60
sg61
g62
sg63
g64
sg65
F1.5
sg66
g67
sg68
I0
sg69
F90.0
sg70
g71
sg73
I8
sg74
F270.0
sg75
g76
sg81
F0.5
sg82
I8
sg83
F5.0
sg84
F0.0
sg85
I0
sg86
F0.65
sa(dp452
g4
F0.03
sg5
I63
sg6
g7
sg8
g9
sg12
I0
sg13
I55
sg14
F20.0
sg15
I2
sg16
F0.5
sg17
F0.15
sg18
F0.15
sg19
I0
sg20
g21
sg22
I1
sg23
g24
sg27
g28
sg29
F154.77970695495605
sg30
F0.945
sg31
I3
sg32
F0.2
sg33
I15
sg34
g35
sg36
F1.0
sg37
I75
sg38
I8
sg39
F0.75
sg40
g41
sg49
(lp453
sg51
g54
sg55
F0.5
sg56
I128
sg57
g58
sg59
g60
sg61
g62
sg63
g64
sg65
F1.5
sg66
g67
sg68
I0
sg69
F90.0
sg70
g71
sg73
I8
sg74
F270.0
sg75
g76
sg81
F0.5
sg82
I8
sg83
F5.0
sg84
F0.0
sg85
I0
sg86
F0.65
sa(dp454
g4
F0.03
sg5
I63
sg6
g7
sg8
g9
sg12
I0
sg13
I55
sg14
F20.0
sg15
I2
sg16
F0.5
sg17
F0.15
sg18
F0.15
sg19
I0
sg20
g21
sg22
I1
sg23
g24
sg27
g28
sg29
F155.7336390018463
sg30
F0.945
sg31
I3
sg32
F0.2
sg33
I15
sg34
g35
sg36
F1.0
sg37
I75
sg38
I8
sg39
F0.75
sg40
g41
sg49
g128
(g129
(I0
tp455
g10
tp456
Rp457
(I1
(I6
tp458
g137
I00
S'\x00\x00\x00\x00\x00\xf0n@\xac\xbbn\xc9\xffF\xe8?\x02\x07\x8d\xd9\x12\xe8\xd9\xbf\xdcP\xaf\x11T\x07\xe8\xbf\x00\x00\x00\x00\x00\x00\x00\x00\x00\x00\x00\x00\x00\x00\x00\x00'
p459
tp460
bsg51
g54
sg55
F0.5
sg56
I128
sg57
g58
sg59
g60
sg61
g62
sg63
g64
sg65
F1.5
sg66
g67
sg68
I0
sg69
F90.0
sg70
g71
sg73
I8
sg74
F270.0
sg75
g76
sg81
F0.5
sg82
I8
sg83
F5.0
sg84
F0.0
sg85
I0
sg86
F0.65
sa(dp461
g4
F0.03
sg5
I63
sg6
g7
sg8
g9
sg12
I0
sg13
I55
sg14
F20.0
sg15
I2
sg16
F0.5
sg17
F0.15
sg18
F0.15
sg19
I0
sg20
g21
sg22
I1
sg23
g24
sg27
g28
sg29
F156.668790102005
sg30
F0.945
sg31
I3
sg32
F0.2
sg33
I15
sg34
g35
sg36
F1.0
sg37
I75
sg38
I8
sg39
F0.75
sg40
g41
sg49
(lp462
sg51
g54
sg55
F0.5
sg56
I128
sg57
g58
sg59
g60
sg61
g62
sg63
g64
sg65
F1.5
sg66
g67
sg68
I0
sg69
F90.0
sg70
g71
sg73
I8
sg74
F270.0
sg75
g76
sg81
F0.5
sg82
I8
sg83
F5.0
sg84
F0.0
sg85
I0
sg86
F0.65
sa(dp463
g4
F0.03
sg5
I63
sg6
g7
sg8
g9
sg12
I0
sg13
I55
sg14
F20.0
sg15
I2
sg16
F0.5
sg17
F0.15
sg18
F0.15
sg19
I0
sg20
g21
sg22
I1
sg23
g24
sg27
g28
sg29
F157.6191349029541
sg30
F0.945
sg31
I3
sg32
F0.2
sg33
I15
sg34
g35
sg36
F1.0
sg37
I75
sg38
I8
sg39
F0.75
sg40
g41
sg49
g128
(g129
(I0
tp464
g10
tp465
Rp466
(I1
(I6
tp467
g137
I00
S'\x00\x00\x00\x00\x00\x80V@\x00\x00\x00\x00\x00\x00\xf0\xbfP\xbf\x14\xf1\xc8\n\xc9?\xd0\xfd\xf34\xff\xcd\xa9\xbf\x00\x00\x00\x00\x00\x00\x00\x00\x00\x00\x00\x00\x00\x00\x00\x00'
p468
tp469
bsg51
g54
sg55
F0.5
sg56
I128
sg57
g58
sg59
g60
sg61
g62
sg63
g64
sg65
F1.5
sg66
g67
sg68
I0
sg69
F90.0
sg70
g71
sg73
I8
sg74
F270.0
sg75
g76
sg81
F0.5
sg82
I8
sg83
F5.0
sg84
F0.0
sg85
I0
sg86
F0.65
sa(dp470
g4
F0.03
sg5
I63
sg6
g7
sg8
g9
sg12
I0
sg13
I55
sg14
F20.0
sg15
I2
sg16
F0.5
sg17
F0.15
sg18
F0.15
sg19
I0
sg20
g21
sg22
I1
sg23
g24
sg27
g28
sg29
F158.5565369129181
sg30
F0.945
sg31
I3
sg32
F0.2
sg33
I15
sg34
g35
sg36
F1.0
sg37
I75
sg38
I8
sg39
F0.75
sg40
g41
sg49
(lp471
sg51
g54
sg55
F0.5
sg56
I128
sg57
g58
sg59
g60
sg61
g62
sg63
g64
sg65
F1.5
sg66
g67
sg68
I0
sg69
F90.0
sg70
g71
sg73
I8
sg74
F270.0
sg75
g76
sg81
F0.5
sg82
I8
sg83
F5.0
sg84
F0.0
sg85
I0
sg86
F0.65
sa(dp472
g4
F0.03
sg5
I63
sg6
g7
sg8
g9
sg12
I0
sg13
I55
sg14
F20.0
sg15
I2
sg16
F0.5
sg17
F0.15
sg18
F0.15
sg19
I0
sg20
g21
sg22
I1
sg23
g24
sg27
g28
sg29
F159.5068221092224
sg30
F0.945
sg31
I3
sg32
F0.2
sg33
I15
sg34
g35
sg36
F1.0
sg37
I75
sg38
I8
sg39
F0.75
sg40
g41
sg49
g128
(g129
(I0
tp473
g10
tp474
Rp475
(I1
(I6
tp476
g137
I00
S'\x00\x00\x00\x00\x00\xe0`@\xac\xbbn\xc9\xffF\xe8?\x02\x07\x8d\xd9\x12\xe8\xd9\xbf\xdcP\xaf\x11T\x07\xe8\xbf\x00\x00\x00\x00\x00\x00\x00\x00\x00\x00\x00\x00\x00\x00\x00\x00'
p477
tp478
bsg51
g54
sg55
F0.5
sg56
I128
sg57
g58
sg59
g60
sg61
g62
sg63
g64
sg65
F1.5
sg66
g67
sg68
I0
sg69
F90.0
sg70
g71
sg73
I8
sg74
F270.0
sg75
g76
sg81
F0.5
sg82
I8
sg83
F5.0
sg84
F0.0
sg85
I0
sg86
F0.65
sa(dp479
g4
F0.03
sg5
I63
sg6
g7
sg8
g9
sg12
I0
sg13
I55
sg14
F20.0
sg15
I2
sg16
F0.5
sg17
F0.15
sg18
F0.15
sg19
I0
sg20
g21
sg22
I1
sg23
g24
sg27
g28
sg29
F160.4492130279541
sg30
F0.945
sg31
I3
sg32
F0.2
sg33
I15
sg34
g35
sg36
F1.0
sg37
I75
sg38
I8
sg39
F0.75
sg40
g41
sg49
(lp480
sg51
g54
sg55
F0.5
sg56
I128
sg57
g58
sg59
g60
sg61
g62
sg63
g64
sg65
F1.5
sg66
g67
sg68
I0
sg69
F90.0
sg70
g71
sg73
I8
sg74
F270.0
sg75
g76
sg81
F0.5
sg82
I8
sg83
F5.0
sg84
F0.0
sg85
I0
sg86
F0.65
sa(dp481
g4
F0.03
sg5
I63
sg6
g7
sg8
g9
sg12
I0
sg13
I55
sg14
F20.0
sg15
I2
sg16
F0.5
sg17
F0.15
sg18
F0.15
sg19
I0
sg20
g21
sg22
I1
sg23
g24
sg27
g28
sg29
F161.39819502830505
sg30
F0.945
sg31
I3
sg32
F0.2
sg33
I15
sg34
g35
sg36
F1.0
sg37
I75
sg38
I8
sg39
F0.75
sg40
g41
sg49
g128
(g129
(I0
tp482
g10
tp483
Rp484
(I1
(I6
tp485
g137
I00
S'\x00\x00\x00\x00\x00\xb0c@\x00\x00\x00\x00\x00\x00\xf0\xbf\xe0\xf5z1\x12\xd3\xa1?\x00\x00\x00\x00\x00\x00\xf0?\x00\x00\x00\x00\x00\x00\x00\x00\x00\x00\x00\x00\x00\x00\x00\x00'
p486
tp487
bsg51
g54
sg55
F0.5
sg56
I128
sg57
g58
sg59
g60
sg61
g62
sg63
g64
sg65
F1.5
sg66
g67
sg68
I0
sg69
F90.0
sg70
g71
sg73
I8
sg74
F270.0
sg75
g76
sg81
F0.5
sg82
I8
sg83
F5.0
sg84
F0.0
sg85
I0
sg86
F0.65
sa(dp488
g4
F0.03
sg5
I63
sg6
g7
sg8
g9
sg12
I0
sg13
I55
sg14
F20.0
sg15
I2
sg16
F0.5
sg17
F0.15
sg18
F0.15
sg19
I0
sg20
g21
sg22
I1
sg23
g24
sg27
g28
sg29
F162.3381860256195
sg30
F0.945
sg31
I3
sg32
F0.2
sg33
I15
sg34
g35
sg36
F1.0
sg37
I75
sg38
I8
sg39
F0.75
sg40
g41
sg49
(lp489
sg51
g54
sg55
F0.5
sg56
I128
sg57
g58
sg59
g60
sg61
g62
sg63
g64
sg65
F1.5
sg66
g67
sg68
I0
sg69
F90.0
sg70
g71
sg73
I8
sg74
F270.0
sg75
g76
sg81
F0.5
sg82
I8
sg83
F5.0
sg84
F0.0
sg85
I0
sg86
F0.65
sa(dp490
g4
F0.03
sg5
I63
sg6
g7
sg8
g9
sg12
I0
sg13
I55
sg14
F20.0
sg15
I2
sg16
F0.5
sg17
F0.15
sg18
F0.15
sg19
I0
sg20
g21
sg22
I1
sg23
g24
sg27
g28
sg29
F163.28258609771729
sg30
F0.945
sg31
I3
sg32
F0.2
sg33
I15
sg34
g35
sg36
F1.0
sg37
I75
sg38
I8
sg39
F0.75
sg40
g41
sg49
(lp491
sg51
g54
sg55
F0.5
sg56
I128
sg57
g58
sg59
g60
sg61
g62
sg63
g64
sg65
F1.5
sg66
g67
sg68
I0
sg69
F90.0
sg70
g71
sg73
I8
sg74
F270.0
sg75
g76
sg81
F0.5
sg82
I8
sg83
F5.0
sg84
F0.0
sg85
I0
sg86
F0.65
sa(dp492
g4
F0.03
sg5
I63
sg6
g7
sg8
g9
sg12
I0
sg13
I55
sg14
F20.0
sg15
I2
sg16
F0.5
sg17
F0.15
sg18
F0.15
sg19
I0
sg20
g21
sg22
I1
sg23
g24
sg27
g28
sg29
F164.22987508773804
sg30
F0.945
sg31
I3
sg32
F0.2
sg33
I15
sg34
g35
sg36
F1.0
sg37
I75
sg38
I8
sg39
F0.75
sg40
g41
sg49
(lp493
sg51
g54
sg55
F0.5
sg56
I128
sg57
g58
sg59
g60
sg61
g62
sg63
g64
sg65
F1.5
sg66
g67
sg68
I0
sg69
F90.0
sg70
g71
sg73
I8
sg74
F270.0
sg75
g76
sg81
F0.5
sg82
I8
sg83
F5.0
sg84
F0.0
sg85
I0
sg86
F0.65
sa(dp494
g4
F0.03
sg5
I63
sg6
g7
sg8
g9
sg12
I0
sg13
I55
sg14
F20.0
sg15
I2
sg16
F0.5
sg17
F0.15
sg18
F0.15
sg19
I0
sg20
g21
sg22
I1
sg23
g24
sg27
g28
sg29
F165.17344093322754
sg30
F0.945
sg31
I3
sg32
F0.2
sg33
I15
sg34
g35
sg36
F1.0
sg37
I75
sg38
I8
sg39
F0.75
sg40
g41
sg49
(lp495
sg51
g54
sg55
F0.5
sg56
I128
sg57
g58
sg59
g60
sg61
g62
sg63
g64
sg65
F1.5
sg66
g67
sg68
I0
sg69
F90.0
sg70
g71
sg73
I8
sg74
F270.0
sg75
g76
sg81
F0.5
sg82
I8
sg83
F5.0
sg84
F0.0
sg85
I0
sg86
F0.65
sa(dp496
g4
F0.03
sg5
I63
sg6
g7
sg8
g9
sg12
I0
sg13
I55
sg14
F20.0
sg15
I2
sg16
F0.5
sg17
F0.15
sg18
F0.15
sg19
I0
sg20
g21
sg22
I1
sg23
g24
sg27
g28
sg29
F166.11800003051758
sg30
F0.945
sg31
I3
sg32
F0.2
sg33
I15
sg34
g35
sg36
F1.0
sg37
I75
sg38
I8
sg39
F0.75
sg40
g41
sg49
(lp497
sg51
g54
sg55
F0.5
sg56
I128
sg57
g58
sg59
g60
sg61
g62
sg63
g64
sg65
F1.5
sg66
g67
sg68
I0
sg69
F90.0
sg70
g71
sg73
I8
sg74
F270.0
sg75
g76
sg81
F0.5
sg82
I8
sg83
F5.0
sg84
F0.0
sg85
I0
sg86
F0.65
sa(dp498
g4
F0.03
sg5
I63
sg6
g7
sg8
g9
sg12
I0
sg13
I55
sg14
F20.0
sg15
I2
sg16
F0.5
sg17
F0.15
sg18
F0.15
sg19
I0
sg20
g21
sg22
I1
sg23
g24
sg27
g28
sg29
F167.0674340724945
sg30
F0.945
sg31
I3
sg32
F0.2
sg33
I15
sg34
g35
sg36
F1.0
sg37
I75
sg38
I8
sg39
F0.75
sg40
g41
sg49
g128
(g129
(I0
tp499
g10
tp500
Rp501
(I1
(I6
tp502
g137
I00
S'\x00\x00\x00\x00\x00 l@(\xfd\x95\xfe\x02;\xd4?N\x98v\x8a\xdb\xe8\xd3\xbfl\xcd\x82\xdd=\x90\xe7?\x00\x00\x00\x00\x00\x00\x00\x00\x00\x00\x00\x00\x00\x00\x00\x00'
p503
tp504
bsg51
g54
sg55
F0.5
sg56
I128
sg57
g58
sg59
g60
sg61
g62
sg63
g64
sg65
F1.5
sg66
g67
sg68
I0
sg69
F90.0
sg70
g71
sg73
I8
sg74
F270.0
sg75
g76
sg81
F0.5
sg82
I8
sg83
F5.0
sg84
F0.0
sg85
I0
sg86
F0.65
sa(dp505
g4
F0.03
sg5
I63
sg6
g7
sg8
g9
sg12
I0
sg13
I55
sg14
F20.0
sg15
I2
sg16
F0.5
sg17
F0.15
sg18
F0.15
sg19
I0
sg20
g21
sg22
I1
sg23
g24
sg27
g28
sg29
F168.00740909576416
sg30
F0.945
sg31
I3
sg32
F0.2
sg33
I15
sg34
g35
sg36
F1.0
sg37
I75
sg38
I8
sg39
F0.75
sg40
g41
sg49
(lp506
sg51
g54
sg55
F0.5
sg56
I128
sg57
g58
sg59
g60
sg61
g62
sg63
g64
sg65
F1.5
sg66
g67
sg68
I0
sg69
F90.0
sg70
g71
sg73
I8
sg74
F270.0
sg75
g76
sg81
F0.5
sg82
I8
sg83
F5.0
sg84
F0.0
sg85
I0
sg86
F0.65
sa(dp507
g4
F0.03
sg5
I63
sg6
g7
sg8
g9
sg12
I0
sg13
I55
sg14
F20.0
sg15
I2
sg16
F0.5
sg17
F0.15
sg18
F0.15
sg19
I0
sg20
g21
sg22
I1
sg23
g24
sg27
g28
sg29
F168.96104788780212
sg30
F0.945
sg31
I3
sg32
F0.2
sg33
I15
sg34
g35
sg36
F1.0
sg37
I75
sg38
I8
sg39
F0.75
sg40
g41
sg49
g128
(g129
(I0
tp508
g10
tp509
Rp510
(I1
(I6
tp511
g137
I00
S'\x00\x00\x00\x00\x00 \\@\x00\x00\x00\x00\x00\x00\xf0\xbf\x88\x86a>51\xc7?\xb0\xaa\xa5\x0e\xac\x19\xe7?\x00\x00\x00\x00\x00\x00\x00\x00\x00\x00\x00\x00\x00\x00\x00\x00'
p512
tp513
bsg51
g54
sg55
F0.5
sg56
I128
sg57
g58
sg59
g60
sg61
g62
sg63
g64
sg65
F1.5
sg66
g67
sg68
I0
sg69
F90.0
sg70
g71
sg73
I8
sg74
F270.0
sg75
g76
sg81
F0.5
sg82
I8
sg83
F5.0
sg84
F0.0
sg85
I0
sg86
F0.65
sa(dp514
g4
F0.03
sg5
I63
sg6
g7
sg8
g9
sg12
I0
sg13
I55
sg14
F20.0
sg15
I2
sg16
F0.5
sg17
F0.15
sg18
F0.15
sg19
I0
sg20
g21
sg22
I1
sg23
g24
sg27
g28
sg29
F169.89802408218384
sg30
F0.945
sg31
I3
sg32
F0.2
sg33
I15
sg34
g35
sg36
F1.0
sg37
I75
sg38
I8
sg39
F0.75
sg40
g41
sg49
(lp515
sg51
g54
sg55
F0.5
sg56
I128
sg57
g58
sg59
g60
sg61
g62
sg63
g64
sg65
F1.5
sg66
g67
sg68
I0
sg69
F90.0
sg70
g71
sg73
I8
sg74
F270.0
sg75
g76
sg81
F0.5
sg82
I8
sg83
F5.0
sg84
F0.0
sg85
I0
sg86
F0.65
sa(dp516
g4
F0.03
sg5
I63
sg6
g7
sg8
g9
sg12
I0
sg13
I55
sg14
F20.0
sg15
I2
sg16
F0.5
sg17
F0.15
sg18
F0.15
sg19
I0
sg20
g21
sg22
I1
sg23
g24
sg27
g28
sg29
F170.84099292755127
sg30
F0.945
sg31
I3
sg32
F0.2
sg33
I15
sg34
g35
sg36
F1.0
sg37
I75
sg38
I8
sg39
F0.75
sg40
g41
sg49
(lp517
sg51
g54
sg55
F0.5
sg56
I128
sg57
g58
sg59
g60
sg61
g62
sg63
g64
sg65
F1.5
sg66
g67
sg68
I0
sg69
F90.0
sg70
g71
sg73
I8
sg74
F270.0
sg75
g76
sg81
F0.5
sg82
I8
sg83
F5.0
sg84
F0.0
sg85
I0
sg86
F0.65
sa(dp518
g4
F0.03
sg5
I63
sg6
g7
sg8
g9
sg12
I0
sg13
I55
sg14
F20.0
sg15
I2
sg16
F0.5
sg17
F0.15
sg18
F0.15
sg19
I0
sg20
g21
sg22
I1
sg23
g24
sg27
g28
sg29
F171.78687500953674
sg30
F0.945
sg31
I3
sg32
F0.2
sg33
I15
sg34
g35
sg36
F1.0
sg37
I75
sg38
I8
sg39
F0.75
sg40
g41
sg49
(lp519
sg51
g54
sg55
F0.5
sg56
I128
sg57
g58
sg59
g60
sg61
g62
sg63
g64
sg65
F1.5
sg66
g67
sg68
I0
sg69
F90.0
sg70
g71
sg73
I8
sg74
F270.0
sg75
g76
sg81
F0.5
sg82
I8
sg83
F5.0
sg84
F0.0
sg85
I0
sg86
F0.65
sa(dp520
g4
F0.03
sg5
I63
sg6
g7
sg8
g9
sg12
I0
sg13
I55
sg14
F20.0
sg15
I2
sg16
F0.5
sg17
F0.15
sg18
F0.15
sg19
I0
sg20
g21
sg22
I1
sg23
g24
sg27
g28
sg29
F172.73165893554688
sg30
F0.945
sg31
I3
sg32
F0.2
sg33
I15
sg34
g35
sg36
F1.0
sg37
I75
sg38
I8
sg39
F0.75
sg40
g41
sg49
(lp521
sg51
g54
sg55
F0.5
sg56
I128
sg57
g58
sg59
g60
sg61
g62
sg63
g64
sg65
F1.5
sg66
g67
sg68
I0
sg69
F90.0
sg70
g71
sg73
I8
sg74
F270.0
sg75
g76
sg81
F0.5
sg82
I8
sg83
F5.0
sg84
F0.0
sg85
I0
sg86
F0.65
sa(dp522
g4
F0.03
sg5
I63
sg6
g7
sg8
g9
sg12
I0
sg13
I55
sg14
F20.0
sg15
I2
sg16
F0.5
sg17
F0.15
sg18
F0.15
sg19
I0
sg20
g21
sg22
I1
sg23
g24
sg27
g28
sg29
F173.67662596702576
sg30
F0.945
sg31
I3
sg32
F0.2
sg33
I15
sg34
g35
sg36
F1.0
sg37
I75
sg38
I8
sg39
F0.75
sg40
g41
sg49
(lp523
sg51
g54
sg55
F0.5
sg56
I128
sg57
g58
sg59
g60
sg61
g62
sg63
g64
sg65
F1.5
sg66
g67
sg68
I0
sg69
F90.0
sg70
g71
sg73
I8
sg74
F270.0
sg75
g76
sg81
F0.5
sg82
I8
sg83
F5.0
sg84
F0.0
sg85
I0
sg86
F0.65
sa(dp524
g4
F0.03
sg5
I63
sg6
g7
sg8
g9
sg12
I0
sg13
I55
sg14
F20.0
sg15
I2
sg16
F0.5
sg17
F0.15
sg18
F0.15
sg19
I0
sg20
g21
sg22
I1
sg23
g24
sg27
g28
sg29
F174.62107300758362
sg30
F0.945
sg31
I3
sg32
F0.2
sg33
I15
sg34
g35
sg36
F1.0
sg37
I75
sg38
I8
sg39
F0.75
sg40
g41
sg49
(lp525
sg51
g54
sg55
F0.5
sg56
I128
sg57
g58
sg59
g60
sg61
g62
sg63
g64
sg65
F1.5
sg66
g67
sg68
I0
sg69
F90.0
sg70
g71
sg73
I8
sg74
F270.0
sg75
g76
sg81
F0.5
sg82
I8
sg83
F5.0
sg84
F0.0
sg85
I0
sg86
F0.65
sa(dp526
g4
F0.03
sg5
I63
sg6
g7
sg8
g9
sg12
I0
sg13
I55
sg14
F20.0
sg15
I2
sg16
F0.5
sg17
F0.15
sg18
F0.15
sg19
I0
sg20
g21
sg22
I1
sg23
g24
sg27
g28
sg29
F175.56647896766663
sg30
F0.945
sg31
I3
sg32
F0.2
sg33
I15
sg34
g35
sg36
F1.0
sg37
I75
sg38
I8
sg39
F0.75
sg40
g41
sg49
(lp527
sg51
g54
sg55
F0.5
sg56
I128
sg57
g58
sg59
g60
sg61
g62
sg63
g64
sg65
F1.5
sg66
g67
sg68
I0
sg69
F90.0
sg70
g71
sg73
I8
sg74
F270.0
sg75
g76
sg81
F0.5
sg82
I8
sg83
F5.0
sg84
F0.0
sg85
I0
sg86
F0.65
sa(dp528
g4
F0.03
sg5
I63
sg6
g7
sg8
g9
sg12
I0
sg13
I55
sg14
F20.0
sg15
I2
sg16
F0.5
sg17
F0.15
sg18
F0.15
sg19
I0
sg20
g21
sg22
I1
sg23
g24
sg27
g28
sg29
F176.5162649154663
sg30
F0.945
sg31
I3
sg32
F0.2
sg33
I15
sg34
g35
sg36
F1.0
sg37
I75
sg38
I8
sg39
F0.75
sg40
g41
sg49
g128
(g129
(I0
tp529
g10
tp530
Rp531
(I1
(I6
tp532
g137
I00
S'\x00\x00\x00\x00\x00\x80V@\xb2\xf2\x90\x1b=l\xec?\xe6L\x16\x9b\xaa`\xe5\xbf\xc0\x1e\xa8cy_\x87\xbf\x00\x00\x00\x00\x00\x00\x00\x00\x00\x00\x00\x00\x00\x00\x00\x00'
p533
tp534
bsg51
g54
sg55
F0.5
sg56
I128
sg57
g58
sg59
g60
sg61
g62
sg63
g64
sg65
F1.5
sg66
g67
sg68
I0
sg69
F90.0
sg70
g71
sg73
I8
sg74
F270.0
sg75
g76
sg81
F0.5
sg82
I8
sg83
F5.0
sg84
F0.0
sg85
I0
sg86
F0.65
sa(dp535
g4
F0.03
sg5
I63
sg6
g7
sg8
g9
sg12
I0
sg13
I55
sg14
F20.0
sg15
I2
sg16
F0.5
sg17
F0.15
sg18
F0.15
sg19
I0
sg20
g21
sg22
I1
sg23
g24
sg27
g28
sg29
F177.45734810829163
sg30
F0.945
sg31
I3
sg32
F0.2
sg33
I15
sg34
g35
sg36
F1.0
sg37
I75
sg38
I8
sg39
F0.75
sg40
g41
sg49
(lp536
sg51
g54
sg55
F0.5
sg56
I128
sg57
g58
sg59
g60
sg61
g62
sg63
g64
sg65
F1.5
sg66
g67
sg68
I0
sg69
F90.0
sg70
g71
sg73
I8
sg74
F270.0
sg75
g76
sg81
F0.5
sg82
I8
sg83
F5.0
sg84
F0.0
sg85
I0
sg86
F0.65
sa(dp537
g4
F0.03
sg5
I63
sg6
g7
sg8
g9
sg12
I0
sg13
I55
sg14
F20.0
sg15
I2
sg16
F0.5
sg17
F0.15
sg18
F0.15
sg19
I0
sg20
g21
sg22
I1
sg23
g24
sg27
g28
sg29
F178.40645909309387
sg30
F0.945
sg31
I3
sg32
F0.2
sg33
I15
sg34
g35
sg36
F1.0
sg37
I75
sg38
I8
sg39
F0.75
sg40
g41
sg49
g128
(g129
(I0
tp538
g10
tp539
Rp540
(I1
(I6
tp541
g137
I00
S'\x00\x00\x00\x00\x00\xb0c@\xb2\xf2\x90\x1b=l\xec?\xe6L\x16\x9b\xaa`\xe5\xbf\xc0\x1e\xa8cy_\x87\xbf\x00\x00\x00\x00\x00\x00\x00\x00\x00\x00\x00\x00\x00\x00\x00\x00'
p542
tp543
bsg51
g54
sg55
F0.5
sg56
I128
sg57
g58
sg59
g60
sg61
g62
sg63
g64
sg65
F1.5
sg66
g67
sg68
I0
sg69
F90.0
sg70
g71
sg73
I8
sg74
F270.0
sg75
g76
sg81
F0.5
sg82
I8
sg83
F5.0
sg84
F0.0
sg85
I0
sg86
F0.65
sa(dp544
g4
F0.03
sg5
I63
sg6
g7
sg8
g9
sg12
I0
sg13
I55
sg14
F20.0
sg15
I2
sg16
F0.5
sg17
F0.15
sg18
F0.15
sg19
I0
sg20
g21
sg22
I1
sg23
g24
sg27
g28
sg29
F179.34464693069458
sg30
F0.945
sg31
I3
sg32
F0.2
sg33
I15
sg34
g35
sg36
F1.0
sg37
I75
sg38
I8
sg39
F0.75
sg40
g41
sg49
(lp545
sg51
g54
sg55
F0.5
sg56
I128
sg57
g58
sg59
g60
sg61
g62
sg63
g64
sg65
F1.5
sg66
g67
sg68
I0
sg69
F90.0
sg70
g71
sg73
I8
sg74
F270.0
sg75
g76
sg81
F0.5
sg82
I8
sg83
F5.0
sg84
F0.0
sg85
I0
sg86
F0.65
sa(dp546
g4
F0.03
sg5
I63
sg6
g7
sg8
g9
sg12
I0
sg13
I55
sg14
F20.0
sg15
I2
sg16
F0.5
sg17
F0.15
sg18
F0.15
sg19
I0
sg20
g21
sg22
I1
sg23
g24
sg27
g28
sg29
F180.2942910194397
sg30
F0.945
sg31
I3
sg32
F0.2
sg33
I15
sg34
g35
sg36
F1.0
sg37
I75
sg38
I8
sg39
F0.75
sg40
g41
sg49
g128
(g129
(I0
tp547
g10
tp548
Rp549
(I1
(I6
tp550
g137
I00
S'\x00\x00\x00\x00\x00 l@\xac\xbbn\xc9\xffF\xe8?\x02\x07\x8d\xd9\x12\xe8\xd9\xbf\xdcP\xaf\x11T\x07\xe8\xbf\x00\x00\x00\x00\x00\x00\x00\x00\x00\x00\x00\x00\x00\x00\x00\x00'
p551
tp552
bsg51
g54
sg55
F0.5
sg56
I128
sg57
g58
sg59
g60
sg61
g62
sg63
g64
sg65
F1.5
sg66
g67
sg68
I0
sg69
F90.0
sg70
g71
sg73
I8
sg74
F270.0
sg75
g76
sg81
F0.5
sg82
I8
sg83
F5.0
sg84
F0.0
sg85
I0
sg86
F0.65
sa(dp553
g4
F0.03
sg5
I63
sg6
g7
sg8
g9
sg12
I0
sg13
I55
sg14
F20.0
sg15
I2
sg16
F0.5
sg17
F0.15
sg18
F0.15
sg19
I0
sg20
g21
sg22
I1
sg23
g24
sg27
g28
sg29
F181.2350308895111
sg30
F0.945
sg31
I3
sg32
F0.2
sg33
I15
sg34
g35
sg36
F1.0
sg37
I75
sg38
I8
sg39
F0.75
sg40
g41
sg49
(lp554
sg51
g54
sg55
F0.5
sg56
I128
sg57
g58
sg59
g60
sg61
g62
sg63
g64
sg65
F1.5
sg66
g67
sg68
I0
sg69
F90.0
sg70
g71
sg73
I8
sg74
F270.0
sg75
g76
sg81
F0.5
sg82
I8
sg83
F5.0
sg84
F0.0
sg85
I0
sg86
F0.65
sa(dp555
g4
F0.03
sg5
I63
sg6
g7
sg8
g9
sg12
I0
sg13
I55
sg14
F20.0
sg15
I2
sg16
F0.5
sg17
F0.15
sg18
F0.15
sg19
I0
sg20
g21
sg22
I1
sg23
g24
sg27
g28
sg29
F182.18538808822632
sg30
F0.945
sg31
I3
sg32
F0.2
sg33
I15
sg34
g35
sg36
F1.0
sg37
I75
sg38
I8
sg39
F0.75
sg40
g41
sg49
g128
(g129
(I0
tp556
g10
tp557
Rp558
(I1
(I6
tp559
g137
I00
S'\x00\x00\x00\x00\x00\x80V@\xac\xbbn\xc9\xffF\xe8?\x02\x07\x8d\xd9\x12\xe8\xd9\xbf\xdcP\xaf\x11T\x07\xe8\xbf\x00\x00\x00\x00\x00\x00\x00\x00\x00\x00\x00\x00\x00\x00\x00\x00'
p560
tp561
bsg51
g54
sg55
F0.5
sg56
I128
sg57
g58
sg59
g60
sg61
g62
sg63
g64
sg65
F1.5
sg66
g67
sg68
I0
sg69
F90.0
sg70
g71
sg73
I8
sg74
F270.0
sg75
g76
sg81
F0.5
sg82
I8
sg83
F5.0
sg84
F0.0
sg85
I0
sg86
F0.65
sa(dp562
g4
F0.03
sg5
I63
sg6
g7
sg8
g9
sg12
I0
sg13
I55
sg14
F20.0
sg15
I2
sg16
F0.5
sg17
F0.15
sg18
F0.15
sg19
I0
sg20
g21
sg22
I1
sg23
g24
sg27
g28
sg29
F183.12402987480164
sg30
F0.945
sg31
I3
sg32
F0.2
sg33
I15
sg34
g35
sg36
F1.0
sg37
I75
sg38
I8
sg39
F0.75
sg40
g41
sg49
(lp563
sg51
g54
sg55
F0.5
sg56
I128
sg57
g58
sg59
g60
sg61
g62
sg63
g64
sg65
F1.5
sg66
g67
sg68
I0
sg69
F90.0
sg70
g71
sg73
I8
sg74
F270.0
sg75
g76
sg81
F0.5
sg82
I8
sg83
F5.0
sg84
F0.0
sg85
I0
sg86
F0.65
sa(dp564
g4
F0.03
sg5
I63
sg6
g7
sg8
g9
sg12
I0
sg13
I55
sg14
F20.0
sg15
I2
sg16
F0.5
sg17
F0.15
sg18
F0.15
sg19
I0
sg20
g21
sg22
I1
sg23
g24
sg27
g28
sg29
F184.07299494743347
sg30
F0.945
sg31
I3
sg32
F0.2
sg33
I15
sg34
g35
sg36
F1.0
sg37
I75
sg38
I8
sg39
F0.75
sg40
g41
sg49
g128
(g129
(I0
tp565
g10
tp566
Rp567
(I1
(I6
tp568
g137
I00
S'\x00\x00\x00\x00\x00\xf0n@(\xfd\x95\xfe\x02;\xd4?N\x98v\x8a\xdb\xe8\xd3\xbfl\xcd\x82\xdd=\x90\xe7?\x00\x00\x00\x00\x00\x00\x00\x00\x00\x00\x00\x00\x00\x00\x00\x00'
p569
tp570
bsg51
g54
sg55
F0.5
sg56
I128
sg57
g58
sg59
g60
sg61
g62
sg63
g64
sg65
F1.5
sg66
g67
sg68
I0
sg69
F90.0
sg70
g71
sg73
I8
sg74
F270.0
sg75
g76
sg81
F0.5
sg82
I8
sg83
F5.0
sg84
F0.0
sg85
I0
sg86
F0.65
sa(dp571
g4
F0.03
sg5
I63
sg6
g7
sg8
g9
sg12
I0
sg13
I55
sg14
F20.0
sg15
I2
sg16
F0.5
sg17
F0.15
sg18
F0.15
sg19
I0
sg20
g21
sg22
I1
sg23
g24
sg27
g28
sg29
F185.01446390151978
sg30
F0.945
sg31
I3
sg32
F0.2
sg33
I15
sg34
g35
sg36
F1.0
sg37
I75
sg38
I8
sg39
F0.75
sg40
g41
sg49
(lp572
sg51
g54
sg55
F0.5
sg56
I128
sg57
g58
sg59
g60
sg61
g62
sg63
g64
sg65
F1.5
sg66
g67
sg68
I0
sg69
F90.0
sg70
g71
sg73
I8
sg74
F270.0
sg75
g76
sg81
F0.5
sg82
I8
sg83
F5.0
sg84
F0.0
sg85
I0
sg86
F0.65
sa(dp573
g4
F0.03
sg5
I63
sg6
g7
sg8
g9
sg12
I0
sg13
I55
sg14
F20.0
sg15
I2
sg16
F0.5
sg17
F0.15
sg18
F0.15
sg19
I0
sg20
g21
sg22
I1
sg23
g24
sg27
g28
sg29
F185.96343088150024
sg30
F0.945
sg31
I3
sg32
F0.2
sg33
I15
sg34
g35
sg36
F1.0
sg37
I75
sg38
I8
sg39
F0.75
sg40
g41
sg49
g128
(g129
(I0
tp574
g10
tp575
Rp576
(I1
(I6
tp577
g137
I00
S'\x00\x00\x00\x00\x00\xb0c@\x00\x00\x00\x00\x00\x00\xf0\xbf\x88\x86a>51\xc7?\xb0\xaa\xa5\x0e\xac\x19\xe7?\x00\x00\x00\x00\x00\x00\x00\x00\x00\x00\x00\x00\x00\x00\x00\x00'
p578
tp579
bsg51
g54
sg55
F0.5
sg56
I128
sg57
g58
sg59
g60
sg61
g62
sg63
g64
sg65
F1.5
sg66
g67
sg68
I0
sg69
F90.0
sg70
g71
sg73
I8
sg74
F270.0
sg75
g76
sg81
F0.5
sg82
I8
sg83
F5.0
sg84
F0.0
sg85
I0
sg86
F0.65
sa(dp580
g4
F0.03
sg5
I63
sg6
g7
sg8
g9
sg12
I0
sg13
I55
sg14
F20.0
sg15
I2
sg16
F0.5
sg17
F0.15
sg18
F0.15
sg19
I0
sg20
g21
sg22
I1
sg23
g24
sg27
g28
sg29
F186.9034240245819
sg30
F0.945
sg31
I3
sg32
F0.2
sg33
I15
sg34
g35
sg36
F1.0
sg37
I75
sg38
I8
sg39
F0.75
sg40
g41
sg49
(lp581
sg51
g54
sg55
F0.5
sg56
I128
sg57
g58
sg59
g60
sg61
g62
sg63
g64
sg65
F1.5
sg66
g67
sg68
I0
sg69
F90.0
sg70
g71
sg73
I8
sg74
F270.0
sg75
g76
sg81
F0.5
sg82
I8
sg83
F5.0
sg84
F0.0
sg85
I0
sg86
F0.65
sa(dp582
g4
F0.03
sg5
I63
sg6
g7
sg8
g9
sg12
I0
sg13
I55
sg14
F20.0
sg15
I2
sg16
F0.5
sg17
F0.15
sg18
F0.15
sg19
I0
sg20
g21
sg22
I1
sg23
g24
sg27
g28
sg29
F187.85454988479614
sg30
F0.945
sg31
I3
sg32
F0.2
sg33
I15
sg34
g35
sg36
F1.0
sg37
I75
sg38
I8
sg39
F0.75
sg40
g41
sg49
g128
(g129
(I0
tp583
g10
tp584
Rp585
(I1
(I6
tp586
g137
I00
S'\x00\x00\x00\x00\x00 l@&\x95\xa5\xadY)\xe7\xbf@1a0\xd2\xbc\xc0?2\x05b\xe8&\x1a\xec\xbf\x00\x00\x00\x00\x00\x00\x00\x00\x00\x00\x00\x00\x00\x00\x00\x00'
p587
tp588
bsg51
g54
sg55
F0.5
sg56
I128
sg57
g58
sg59
g60
sg61
g62
sg63
g64
sg65
F1.5
sg66
g67
sg68
I0
sg69
F90.0
sg70
g71
sg73
I8
sg74
F270.0
sg75
g76
sg81
F0.5
sg82
I8
sg83
F5.0
sg84
F0.0
sg85
I0
sg86
F0.65
sa(dp589
g4
F0.03
sg5
I63
sg6
g7
sg8
g9
sg12
I0
sg13
I55
sg14
F20.0
sg15
I2
sg16
F0.5
sg17
F0.15
sg18
F0.15
sg19
I0
sg20
g21
sg22
I1
sg23
g24
sg27
g28
sg29
F188.79393410682678
sg30
F0.945
sg31
I3
sg32
F0.2
sg33
I15
sg34
g35
sg36
F1.0
sg37
I75
sg38
I8
sg39
F0.75
sg40
g41
sg49
(lp590
sg51
g54
sg55
F0.5
sg56
I128
sg57
g58
sg59
g60
sg61
g62
sg63
g64
sg65
F1.5
sg66
g67
sg68
I0
sg69
F90.0
sg70
g71
sg73
I8
sg74
F270.0
sg75
g76
sg81
F0.5
sg82
I8
sg83
F5.0
sg84
F0.0
sg85
I0
sg86
F0.65
sa(dp591
g4
F0.03
sg5
I63
sg6
g7
sg8
g9
sg12
I0
sg13
I55
sg14
F20.0
sg15
I2
sg16
F0.5
sg17
F0.15
sg18
F0.15
sg19
I0
sg20
g21
sg22
I1
sg23
g24
sg27
g28
sg29
F189.73813390731812
sg30
F0.945
sg31
I3
sg32
F0.2
sg33
I15
sg34
g35
sg36
F1.0
sg37
I75
sg38
I8
sg39
F0.75
sg40
g41
sg49
(lp592
sg51
g54
sg55
F0.5
sg56
I128
sg57
g58
sg59
g60
sg61
g62
sg63
g64
sg65
F1.5
sg66
g67
sg68
I0
sg69
F90.0
sg70
g71
sg73
I8
sg74
F270.0
sg75
g76
sg81
F0.5
sg82
I8
sg83
F5.0
sg84
F0.0
sg85
I0
sg86
F0.65
sa(dp593
g4
F0.03
sg5
I63
sg6
g7
sg8
g9
sg12
I0
sg13
I55
sg14
F20.0
sg15
I2
sg16
F0.5
sg17
F0.15
sg18
F0.15
sg19
I0
sg20
g21
sg22
I1
sg23
g24
sg27
g28
sg29
F190.68409204483032
sg30
F0.945
sg31
I3
sg32
F0.2
sg33
I15
sg34
g35
sg36
F1.0
sg37
I75
sg38
I8
sg39
F0.75
sg40
g41
sg49
(lp594
sg51
g54
sg55
F0.5
sg56
I128
sg57
g58
sg59
g60
sg61
g62
sg63
g64
sg65
F1.5
sg66
g67
sg68
I0
sg69
F90.0
sg70
g71
sg73
I8
sg74
F270.0
sg75
g76
sg81
F0.5
sg82
I8
sg83
F5.0
sg84
F0.0
sg85
I0
sg86
F0.65
sa(dp595
g4
F0.03
sg5
I63
sg6
g7
sg8
g9
sg12
I0
sg13
I55
sg14
F20.0
sg15
I2
sg16
F0.5
sg17
F0.15
sg18
F0.15
sg19
I0
sg20
g21
sg22
I1
sg23
g24
sg27
g28
sg29
F191.6328899860382
sg30
F0.945
sg31
I3
sg32
F0.2
sg33
I15
sg34
g35
sg36
F1.0
sg37
I75
sg38
I8
sg39
F0.75
sg40
g41
sg49
g128
(g129
(I0
tp596
g10
tp597
Rp598
(I1
(I6
tp599
g137
I00
S'\x00\x00\x00\x00\x00 \\@\xac\xbbn\xc9\xffF\xe8?\x02\x07\x8d\xd9\x12\xe8\xd9\xbf\xdcP\xaf\x11T\x07\xe8\xbf\x00\x00\x00\x00\x00\x00\x00\x00\x00\x00\x00\x00\x00\x00\x00\x00'
p600
tp601
bsg51
g54
sg55
F0.5
sg56
I128
sg57
g58
sg59
g60
sg61
g62
sg63
g64
sg65
F1.5
sg66
g67
sg68
I0
sg69
F90.0
sg70
g71
sg73
I8
sg74
F270.0
sg75
g76
sg81
F0.5
sg82
I8
sg83
F5.0
sg84
F0.0
sg85
I0
sg86
F0.65
sa(dp602
g4
F0.03
sg5
I63
sg6
g7
sg8
g9
sg12
I0
sg13
I55
sg14
F20.0
sg15
I2
sg16
F0.5
sg17
F0.15
sg18
F0.15
sg19
I0
sg20
g21
sg22
I1
sg23
g24
sg27
g28
sg29
F192.57326197624207
sg30
F0.945
sg31
I3
sg32
F0.2
sg33
I15
sg34
g35
sg36
F1.0
sg37
I75
sg38
I8
sg39
F0.75
sg40
g41
sg49
(lp603
sg51
g54
sg55
F0.5
sg56
I128
sg57
g58
sg59
g60
sg61
g62
sg63
g64
sg65
F1.5
sg66
g67
sg68
I0
sg69
F90.0
sg70
g71
sg73
I8
sg74
F270.0
sg75
g76
sg81
F0.5
sg82
I8
sg83
F5.0
sg84
F0.0
sg85
I0
sg86
F0.65
sa(dp604
g4
F0.03
sg5
I63
sg6
g7
sg8
g9
sg12
I0
sg13
I55
sg14
F20.0
sg15
I2
sg16
F0.5
sg17
F0.15
sg18
F0.15
sg19
I0
sg20
g21
sg22
I1
sg23
g24
sg27
g28
sg29
F193.51789498329163
sg30
F0.945
sg31
I3
sg32
F0.2
sg33
I15
sg34
g35
sg36
F1.0
sg37
I75
sg38
I8
sg39
F0.75
sg40
g41
sg49
(lp605
sg51
g54
sg55
F0.5
sg56
I128
sg57
g58
sg59
g60
sg61
g62
sg63
g64
sg65
F1.5
sg66
g67
sg68
I0
sg69
F90.0
sg70
g71
sg73
I8
sg74
F270.0
sg75
g76
sg81
F0.5
sg82
I8
sg83
F5.0
sg84
F0.0
sg85
I0
sg86
F0.65
sa(dp606
g4
F0.03
sg5
I63
sg6
g7
sg8
g9
sg12
I0
sg13
I55
sg14
F20.0
sg15
I2
sg16
F0.5
sg17
F0.15
sg18
F0.15
sg19
I0
sg20
g21
sg22
I1
sg23
g24
sg27
g28
sg29
F194.46303510665894
sg30
F0.945
sg31
I3
sg32
F0.2
sg33
I15
sg34
g35
sg36
F1.0
sg37
I75
sg38
I8
sg39
F0.75
sg40
g41
sg49
(lp607
sg51
g54
sg55
F0.5
sg56
I128
sg57
g58
sg59
g60
sg61
g62
sg63
g64
sg65
F1.5
sg66
g67
sg68
I0
sg69
F90.0
sg70
g71
sg73
I8
sg74
F270.0
sg75
g76
sg81
F0.5
sg82
I8
sg83
F5.0
sg84
F0.0
sg85
I0
sg86
F0.65
sa(dp608
g4
F0.03
sg5
I63
sg6
g7
sg8
g9
sg12
I0
sg13
I55
sg14
F20.0
sg15
I2
sg16
F0.5
sg17
F0.15
sg18
F0.15
sg19
I0
sg20
g21
sg22
I1
sg23
g24
sg27
g28
sg29
F195.4093120098114
sg30
F0.945
sg31
I3
sg32
F0.2
sg33
I15
sg34
g35
sg36
F1.0
sg37
I75
sg38
I8
sg39
F0.75
sg40
g41
sg49
(lp609
sg51
g54
sg55
F0.5
sg56
I128
sg57
g58
sg59
g60
sg61
g62
sg63
g64
sg65
F1.5
sg66
g67
sg68
I0
sg69
F90.0
sg70
g71
sg73
I8
sg74
F270.0
sg75
g76
sg81
F0.5
sg82
I8
sg83
F5.0
sg84
F0.0
sg85
I0
sg86
F0.65
sa(dp610
g4
F0.03
sg5
I63
sg6
g7
sg8
g9
sg12
I0
sg13
I55
sg14
F20.0
sg15
I2
sg16
F0.5
sg17
F0.15
sg18
F0.15
sg19
I0
sg20
g21
sg22
I1
sg23
g24
sg27
g28
sg29
F196.35320687294006
sg30
F0.945
sg31
I3
sg32
F0.2
sg33
I15
sg34
g35
sg36
F1.0
sg37
I75
sg38
I8
sg39
F0.75
sg40
g41
sg49
(lp611
sg51
g54
sg55
F0.5
sg56
I128
sg57
g58
sg59
g60
sg61
g62
sg63
g64
sg65
F1.5
sg66
g67
sg68
I0
sg69
F90.0
sg70
g71
sg73
I8
sg74
F270.0
sg75
g76
sg81
F0.5
sg82
I8
sg83
F5.0
sg84
F0.0
sg85
I0
sg86
F0.65
sa(dp612
g4
F0.03
sg5
I63
sg6
g7
sg8
g9
sg12
I0
sg13
I55
sg14
F20.0
sg15
I2
sg16
F0.5
sg17
F0.15
sg18
F0.15
sg19
I0
sg20
g21
sg22
I1
sg23
g24
sg27
g28
sg29
F197.2979290485382
sg30
F0.945
sg31
I3
sg32
F0.2
sg33
I15
sg34
g35
sg36
F1.0
sg37
I75
sg38
I8
sg39
F0.75
sg40
g41
sg49
(lp613
sg51
g54
sg55
F0.5
sg56
I128
sg57
g58
sg59
g60
sg61
g62
sg63
g64
sg65
F1.5
sg66
g67
sg68
I0
sg69
F90.0
sg70
g71
sg73
I8
sg74
F270.0
sg75
g76
sg81
F0.5
sg82
I8
sg83
F5.0
sg84
F0.0
sg85
I0
sg86
F0.65
sa(dp614
g4
F0.03
sg5
I63
sg6
g7
sg8
g9
sg12
I0
sg13
I55
sg14
F20.0
sg15
I2
sg16
F0.5
sg17
F0.15
sg18
F0.15
sg19
I0
sg20
g21
sg22
I1
sg23
g24
sg27
g28
sg29
F198.2426118850708
sg30
F0.945
sg31
I3
sg32
F0.2
sg33
I15
sg34
g35
sg36
F1.0
sg37
I75
sg38
I8
sg39
F0.75
sg40
g41
sg49
(lp615
sg51
g54
sg55
F0.5
sg56
I128
sg57
g58
sg59
g60
sg61
g62
sg63
g64
sg65
F1.5
sg66
g67
sg68
I0
sg69
F90.0
sg70
g71
sg73
I8
sg74
F270.0
sg75
g76
sg81
F0.5
sg82
I8
sg83
F5.0
sg84
F0.0
sg85
I0
sg86
F0.65
sa(dp616
g4
F0.03
sg5
I63
sg6
g7
sg8
g9
sg12
I0
sg13
I55
sg14
F20.0
sg15
I2
sg16
F0.5
sg17
F0.15
sg18
F0.15
sg19
I0
sg20
g21
sg22
I1
sg23
g24
sg27
g28
sg29
F199.18775010108948
sg30
F0.945
sg31
I3
sg32
F0.2
sg33
I15
sg34
g35
sg36
F1.0
sg37
I75
sg38
I8
sg39
F0.75
sg40
g41
sg49
(lp617
sg51
g54
sg55
F0.5
sg56
I128
sg57
g58
sg59
g60
sg61
g62
sg63
g64
sg65
F1.5
sg66
g67
sg68
I0
sg69
F90.0
sg70
g71
sg73
I8
sg74
F270.0
sg75
g76
sg81
F0.5
sg82
I8
sg83
F5.0
sg84
F0.0
sg85
I0
sg86
F0.65
sa(dp618
g4
F0.03
sg5
I63
sg6
g7
sg8
g9
sg12
I0
sg13
I55
sg14
F20.0
sg15
I2
sg16
F0.5
sg17
F0.15
sg18
F0.15
sg19
I0
sg20
g21
sg22
I1
sg23
g24
sg27
g28
sg29
F200.13074398040771
sg30
F0.945
sg31
I3
sg32
F0.2
sg33
I15
sg34
g35
sg36
F1.0
sg37
I75
sg38
I8
sg39
F0.75
sg40
g41
sg49
(lp619
sg51
g54
sg55
F0.5
sg56
I128
sg57
g58
sg59
g60
sg61
g62
sg63
g64
sg65
F1.5
sg66
g67
sg68
I0
sg69
F90.0
sg70
g71
sg73
I8
sg74
F270.0
sg75
g76
sg81
F0.5
sg82
I8
sg83
F5.0
sg84
F0.0
sg85
I0
sg86
F0.65
sa(dp620
g4
F0.03
sg5
I63
sg6
g7
sg8
g9
sg12
I0
sg13
I55
sg14
F20.0
sg15
I2
sg16
F0.5
sg17
F0.15
sg18
F0.15
sg19
I0
sg20
g21
sg22
I1
sg23
g24
sg27
g28
sg29
F201.0758650302887
sg30
F0.945
sg31
I3
sg32
F0.2
sg33
I15
sg34
g35
sg36
F1.0
sg37
I75
sg38
I8
sg39
F0.75
sg40
g41
sg49
(lp621
sg51
g54
sg55
F0.5
sg56
I128
sg57
g58
sg59
g60
sg61
g62
sg63
g64
sg65
F1.5
sg66
g67
sg68
I0
sg69
F90.0
sg70
g71
sg73
I8
sg74
F270.0
sg75
g76
sg81
F0.5
sg82
I8
sg83
F5.0
sg84
F0.0
sg85
I0
sg86
F0.65
sa(dp622
g4
F0.03
sg5
I63
sg6
g7
sg8
g9
sg12
I0
sg13
I55
sg14
F20.0
sg15
I2
sg16
F0.5
sg17
F0.15
sg18
F0.15
sg19
I0
sg20
g21
sg22
I1
sg23
g24
sg27
g28
sg29
F202.02222204208374
sg30
F0.945
sg31
I3
sg32
F0.2
sg33
I15
sg34
g35
sg36
F1.0
sg37
I75
sg38
I8
sg39
F0.75
sg40
g41
sg49
(lp623
sg51
g54
sg55
F0.5
sg56
I128
sg57
g58
sg59
g60
sg61
g62
sg63
g64
sg65
F1.5
sg66
g67
sg68
I0
sg69
F90.0
sg70
g71
sg73
I8
sg74
F270.0
sg75
g76
sg81
F0.5
sg82
I8
sg83
F5.0
sg84
F0.0
sg85
I0
sg86
F0.65
sa(dp624
g4
F0.03
sg5
I63
sg6
g7
sg8
g9
sg12
I0
sg13
I55
sg14
F20.0
sg15
I2
sg16
F0.5
sg17
F0.15
sg18
F0.15
sg19
I0
sg20
g21
sg22
I1
sg23
g24
sg27
g28
sg29
F202.97204208374023
sg30
F0.945
sg31
I3
sg32
F0.2
sg33
I15
sg34
g35
sg36
F1.0
sg37
I75
sg38
I8
sg39
F0.75
sg40
g41
sg49
g128
(g129
(I0
tp625
g10
tp626
Rp627
(I1
(I6
tp628
g137
I00
S'\x00\x00\x00\x00\x00\xe0`@\x00\x00\x00\x00\x00\x00\xf0\xbf\xe0\xf5z1\x12\xd3\xa1?\x00\x00\x00\x00\x00\x00\xf0?\x00\x00\x00\x00\x00\x00\x00\x00\x00\x00\x00\x00\x00\x00\x00\x00'
p629
tp630
bsg51
g54
sg55
F0.5
sg56
I128
sg57
g58
sg59
g60
sg61
g62
sg63
g64
sg65
F1.5
sg66
g67
sg68
I0
sg69
F90.0
sg70
g71
sg73
I8
sg74
F270.0
sg75
g76
sg81
F0.5
sg82
I8
sg83
F5.0
sg84
F0.0
sg85
I0
sg86
F0.65
sa(dp631
g4
F0.03
sg5
I63
sg6
g7
sg8
g9
sg12
I0
sg13
I55
sg14
F20.0
sg15
I2
sg16
F0.5
sg17
F0.15
sg18
F0.15
sg19
I0
sg20
g21
sg22
I1
sg23
g24
sg27
g28
sg29
F203.91006803512573
sg30
F0.945
sg31
I3
sg32
F0.2
sg33
I15
sg34
g35
sg36
F1.0
sg37
I75
sg38
I8
sg39
F0.75
sg40
g41
sg49
(lp632
sg51
g54
sg55
F0.5
sg56
I128
sg57
g58
sg59
g60
sg61
g62
sg63
g64
sg65
F1.5
sg66
g67
sg68
I0
sg69
F90.0
sg70
g71
sg73
I8
sg74
F270.0
sg75
g76
sg81
F0.5
sg82
I8
sg83
F5.0
sg84
F0.0
sg85
I0
sg86
F0.65
sa(dp633
g4
F0.03
sg5
I63
sg6
g7
sg8
g9
sg12
I0
sg13
I55
sg14
F20.0
sg15
I2
sg16
F0.5
sg17
F0.15
sg18
F0.15
sg19
I0
sg20
g21
sg22
I1
sg23
g24
sg27
g28
sg29
F204.85511302947998
sg30
F0.945
sg31
I3
sg32
F0.2
sg33
I15
sg34
g35
sg36
F1.0
sg37
I75
sg38
I8
sg39
F0.75
sg40
g41
sg49
(lp634
sg51
g54
sg55
F0.5
sg56
I128
sg57
g58
sg59
g60
sg61
g62
sg63
g64
sg65
F1.5
sg66
g67
sg68
I0
sg69
F90.0
sg70
g71
sg73
I8
sg74
F270.0
sg75
g76
sg81
F0.5
sg82
I8
sg83
F5.0
sg84
F0.0
sg85
I0
sg86
F0.65
sa(dp635
g4
F0.03
sg5
I63
sg6
g7
sg8
g9
sg12
I0
sg13
I55
sg14
F20.0
sg15
I2
sg16
F0.5
sg17
F0.15
sg18
F0.15
sg19
I0
sg20
g21
sg22
I1
sg23
g24
sg27
g28
sg29
F205.79979801177979
sg30
F0.945
sg31
I3
sg32
F0.2
sg33
I15
sg34
g35
sg36
F1.0
sg37
I75
sg38
I8
sg39
F0.75
sg40
g41
sg49
(lp636
sg51
g54
sg55
F0.5
sg56
I128
sg57
g58
sg59
g60
sg61
g62
sg63
g64
sg65
F1.5
sg66
g67
sg68
I0
sg69
F90.0
sg70
g71
sg73
I8
sg74
F270.0
sg75
g76
sg81
F0.5
sg82
I8
sg83
F5.0
sg84
F0.0
sg85
I0
sg86
F0.65
sa(dp637
g4
F0.03
sg5
I63
sg6
g7
sg8
g9
sg12
I0
sg13
I55
sg14
F20.0
sg15
I2
sg16
F0.5
sg17
F0.15
sg18
F0.15
sg19
I0
sg20
g21
sg22
I1
sg23
g24
sg27
g28
sg29
F206.74605107307434
sg30
F0.945
sg31
I3
sg32
F0.2
sg33
I15
sg34
g35
sg36
F1.0
sg37
I75
sg38
I8
sg39
F0.75
sg40
g41
sg49
(lp638
sg51
g54
sg55
F0.5
sg56
I128
sg57
g58
sg59
g60
sg61
g62
sg63
g64
sg65
F1.5
sg66
g67
sg68
I0
sg69
F90.0
sg70
g71
sg73
I8
sg74
F270.0
sg75
g76
sg81
F0.5
sg82
I8
sg83
F5.0
sg84
F0.0
sg85
I0
sg86
F0.65
sa(dp639
g4
F0.03
sg5
I63
sg6
g7
sg8
g9
sg12
I0
sg13
I55
sg14
F20.0
sg15
I2
sg16
F0.5
sg17
F0.15
sg18
F0.15
sg19
I0
sg20
g21
sg22
I1
sg23
g24
sg27
g28
sg29
F207.6962308883667
sg30
F0.945
sg31
I3
sg32
F0.2
sg33
I15
sg34
g35
sg36
F1.0
sg37
I75
sg38
I8
sg39
F0.75
sg40
g41
sg49
(lp640
sg51
g54
sg55
F0.5
sg56
I128
sg57
g58
sg59
g60
sg61
g62
sg63
g64
sg65
F1.5
sg66
g67
sg68
I0
sg69
F90.0
sg70
g71
sg73
I8
sg74
F270.0
sg75
g76
sg81
F0.5
sg82
I8
sg83
F5.0
sg84
F0.0
sg85
I0
sg86
F0.65
sa(dp641
g4
F0.03
sg5
I63
sg6
g7
sg8
g9
sg12
I0
sg13
I55
sg14
F20.0
sg15
I2
sg16
F0.5
sg17
F0.15
sg18
F0.15
sg19
I0
sg20
g21
sg22
I1
sg23
g24
sg27
g28
sg29
F208.63573789596558
sg30
F0.945
sg31
I3
sg32
F0.2
sg33
I15
sg34
g35
sg36
F1.0
sg37
I75
sg38
I8
sg39
F0.75
sg40
g41
sg49
(lp642
sg51
g54
sg55
F0.5
sg56
I128
sg57
g58
sg59
g60
sg61
g62
sg63
g64
sg65
F1.5
sg66
g67
sg68
I0
sg69
F90.0
sg70
g71
sg73
I8
sg74
F270.0
sg75
g76
sg81
F0.5
sg82
I8
sg83
F5.0
sg84
F0.0
sg85
I0
sg86
F0.65
sa(dp643
g4
F0.03
sg5
I63
sg6
g7
sg8
g9
sg12
I0
sg13
I55
sg14
F20.0
sg15
I2
sg16
F0.5
sg17
F0.15
sg18
F0.15
sg19
I0
sg20
g21
sg22
I1
sg23
g24
sg27
g28
sg29
F209.58052492141724
sg30
F0.945
sg31
I3
sg32
F0.2
sg33
I15
sg34
g35
sg36
F1.0
sg37
I75
sg38
I8
sg39
F0.75
sg40
g41
sg49
(lp644
sg51
g54
sg55
F0.5
sg56
I128
sg57
g58
sg59
g60
sg61
g62
sg63
g64
sg65
F1.5
sg66
g67
sg68
I0
sg69
F90.0
sg70
g71
sg73
I8
sg74
F270.0
sg75
g76
sg81
F0.5
sg82
I8
sg83
F5.0
sg84
F0.0
sg85
I0
sg86
F0.65
sa(dp645
g4
F0.03
sg5
I63
sg6
g7
sg8
g9
sg12
I0
sg13
I55
sg14
F20.0
sg15
I2
sg16
F0.5
sg17
F0.15
sg18
F0.15
sg19
I0
sg20
g21
sg22
I1
sg23
g24
sg27
g28
sg29
F210.5245258808136
sg30
F0.945
sg31
I3
sg32
F0.2
sg33
I15
sg34
g35
sg36
F1.0
sg37
I75
sg38
I8
sg39
F0.75
sg40
g41
sg49
(lp646
sg51
g54
sg55
F0.5
sg56
I128
sg57
g58
sg59
g60
sg61
g62
sg63
g64
sg65
F1.5
sg66
g67
sg68
I0
sg69
F90.0
sg70
g71
sg73
I8
sg74
F270.0
sg75
g76
sg81
F0.5
sg82
I8
sg83
F5.0
sg84
F0.0
sg85
I0
sg86
F0.65
sa(dp647
g4
F0.03
sg5
I63
sg6
g7
sg8
g9
sg12
I0
sg13
I55
sg14
F20.0
sg15
I2
sg16
F0.5
sg17
F0.15
sg18
F0.15
sg19
I0
sg20
g21
sg22
I1
sg23
g24
sg27
g28
sg29
F211.47034001350403
sg30
F0.945
sg31
I3
sg32
F0.2
sg33
I15
sg34
g35
sg36
F1.0
sg37
I75
sg38
I8
sg39
F0.75
sg40
g41
sg49
(lp648
sg51
g54
sg55
F0.5
sg56
I128
sg57
g58
sg59
g60
sg61
g62
sg63
g64
sg65
F1.5
sg66
g67
sg68
I0
sg69
F90.0
sg70
g71
sg73
I8
sg74
F270.0
sg75
g76
sg81
F0.5
sg82
I8
sg83
F5.0
sg84
F0.0
sg85
I0
sg86
F0.65
sa(dp649
g4
F0.03
sg5
I63
sg6
g7
sg8
g9
sg12
I0
sg13
I55
sg14
F20.0
sg15
I2
sg16
F0.5
sg17
F0.15
sg18
F0.15
sg19
I0
sg20
g21
sg22
I1
sg23
g24
sg27
g28
sg29
F212.4213891029358
sg30
F0.945
sg31
I3
sg32
F0.2
sg33
I15
sg34
g35
sg36
F1.0
sg37
I75
sg38
I8
sg39
F0.75
sg40
g41
sg49
g128
(g129
(I0
tp650
g10
tp651
Rp652
(I1
(I6
tp653
g137
I00
S'\x00\x00\x00\x00\x00\x80f@\xb2\xf2\x90\x1b=l\xec?\xe6L\x16\x9b\xaa`\xe5\xbf\xc0\x1e\xa8cy_\x87\xbf\x00\x00\x00\x00\x00\x00\x00\x00\x00\x00\x00\x00\x00\x00\x00\x00'
p654
tp655
bsg51
g54
sg55
F0.5
sg56
I128
sg57
g58
sg59
g60
sg61
g62
sg63
g64
sg65
F1.5
sg66
g67
sg68
I0
sg69
F90.0
sg70
g71
sg73
I8
sg74
F270.0
sg75
g76
sg81
F0.5
sg82
I8
sg83
F5.0
sg84
F0.0
sg85
I0
sg86
F0.65
sa(dp656
g4
F0.03
sg5
I63
sg6
g7
sg8
g9
sg12
I0
sg13
I55
sg14
F20.0
sg15
I2
sg16
F0.5
sg17
F0.15
sg18
F0.15
sg19
I0
sg20
g21
sg22
I1
sg23
g24
sg27
g28
sg29
F213.359601020813
sg30
F0.945
sg31
I3
sg32
F0.2
sg33
I15
sg34
g35
sg36
F1.0
sg37
I75
sg38
I8
sg39
F0.75
sg40
g41
sg49
(lp657
sg51
g54
sg55
F0.5
sg56
I128
sg57
g58
sg59
g60
sg61
g62
sg63
g64
sg65
F1.5
sg66
g67
sg68
I0
sg69
F90.0
sg70
g71
sg73
I8
sg74
F270.0
sg75
g76
sg81
F0.5
sg82
I8
sg83
F5.0
sg84
F0.0
sg85
I0
sg86
F0.65
sa(dp658
g4
F0.03
sg5
I63
sg6
g7
sg8
g9
sg12
I0
sg13
I55
sg14
F20.0
sg15
I2
sg16
F0.5
sg17
F0.15
sg18
F0.15
sg19
I0
sg20
g21
sg22
I1
sg23
g24
sg27
g28
sg29
F214.30499601364136
sg30
F0.945
sg31
I3
sg32
F0.2
sg33
I15
sg34
g35
sg36
F1.0
sg37
I75
sg38
I8
sg39
F0.75
sg40
g41
sg49
(lp659
sg51
g54
sg55
F0.5
sg56
I128
sg57
g58
sg59
g60
sg61
g62
sg63
g64
sg65
F1.5
sg66
g67
sg68
I0
sg69
F90.0
sg70
g71
sg73
I8
sg74
F270.0
sg75
g76
sg81
F0.5
sg82
I8
sg83
F5.0
sg84
F0.0
sg85
I0
sg86
F0.65
sa(dp660
g4
F0.03
sg5
I63
sg6
g7
sg8
g9
sg12
I0
sg13
I55
sg14
F20.0
sg15
I2
sg16
F0.5
sg17
F0.15
sg18
F0.15
sg19
I0
sg20
g21
sg22
I1
sg23
g24
sg27
g28
sg29
F215.24980092048645
sg30
F0.945
sg31
I3
sg32
F0.2
sg33
I15
sg34
g35
sg36
F1.0
sg37
I75
sg38
I8
sg39
F0.75
sg40
g41
sg49
(lp661
sg51
g54
sg55
F0.5
sg56
I128
sg57
g58
sg59
g60
sg61
g62
sg63
g64
sg65
F1.5
sg66
g67
sg68
I0
sg69
F90.0
sg70
g71
sg73
I8
sg74
F270.0
sg75
g76
sg81
F0.5
sg82
I8
sg83
F5.0
sg84
F0.0
sg85
I0
sg86
F0.65
sa(dp662
g4
F0.03
sg5
I63
sg6
g7
sg8
g9
sg12
I0
sg13
I55
sg14
F20.0
sg15
I2
sg16
F0.5
sg17
F0.15
sg18
F0.15
sg19
I0
sg20
g21
sg22
I1
sg23
g24
sg27
g28
sg29
F216.2001760005951
sg30
F0.945
sg31
I3
sg32
F0.2
sg33
I15
sg34
g35
sg36
F1.0
sg37
I75
sg38
I8
sg39
F0.75
sg40
g41
sg49
g128
(g129
(I0
tp663
g10
tp664
Rp665
(I1
(I6
tp666
g137
I00
S'\x00\x00\x00\x00\x00\xe0`@\xb2\xf2\x90\x1b=l\xec?\xe6L\x16\x9b\xaa`\xe5\xbf\xc0\x1e\xa8cy_\x87\xbf\x00\x00\x00\x00\x00\x00\x00\x00\x00\x00\x00\x00\x00\x00\x00\x00'
p667
tp668
bsg51
g54
sg55
F0.5
sg56
I128
sg57
g58
sg59
g60
sg61
g62
sg63
g64
sg65
F1.5
sg66
g67
sg68
I0
sg69
F90.0
sg70
g71
sg73
I8
sg74
F270.0
sg75
g76
sg81
F0.5
sg82
I8
sg83
F5.0
sg84
F0.0
sg85
I0
sg86
F0.65
sa(dp669
g4
F0.03
sg5
I63
sg6
g7
sg8
g9
sg12
I0
sg13
I55
sg14
F20.0
sg15
I2
sg16
F0.5
sg17
F0.15
sg18
F0.15
sg19
I0
sg20
g21
sg22
I1
sg23
g24
sg27
g28
sg29
F217.14033102989197
sg30
F0.945
sg31
I3
sg32
F0.2
sg33
I15
sg34
g35
sg36
F1.0
sg37
I75
sg38
I8
sg39
F0.75
sg40
g41
sg49
(lp670
sg51
g54
sg55
F0.5
sg56
I128
sg57
g58
sg59
g60
sg61
g62
sg63
g64
sg65
F1.5
sg66
g67
sg68
I0
sg69
F90.0
sg70
g71
sg73
I8
sg74
F270.0
sg75
g76
sg81
F0.5
sg82
I8
sg83
F5.0
sg84
F0.0
sg85
I0
sg86
F0.65
sa(dp671
g4
F0.03
sg5
I63
sg6
g7
sg8
g9
sg12
I0
sg13
I55
sg14
F20.0
sg15
I2
sg16
F0.5
sg17
F0.15
sg18
F0.15
sg19
I0
sg20
g21
sg22
I1
sg23
g24
sg27
g28
sg29
F218.08346700668335
sg30
F0.945
sg31
I3
sg32
F0.2
sg33
I15
sg34
g35
sg36
F1.0
sg37
I75
sg38
I8
sg39
F0.75
sg40
g41
sg49
(lp672
sg51
g54
sg55
F0.5
sg56
I128
sg57
g58
sg59
g60
sg61
g62
sg63
g64
sg65
F1.5
sg66
g67
sg68
I0
sg69
F90.0
sg70
g71
sg73
I8
sg74
F270.0
sg75
g76
sg81
F0.5
sg82
I8
sg83
F5.0
sg84
F0.0
sg85
I0
sg86
F0.65
sa(dp673
g4
F0.03
sg5
I63
sg6
g7
sg8
g9
sg12
I0
sg13
I55
sg14
F20.0
sg15
I2
sg16
F0.5
sg17
F0.15
sg18
F0.15
sg19
I0
sg20
g21
sg22
I1
sg23
g24
sg27
g28
sg29
F219.02941799163818
sg30
F0.945
sg31
I3
sg32
F0.2
sg33
I15
sg34
g35
sg36
F1.0
sg37
I75
sg38
I8
sg39
F0.75
sg40
g41
sg49
(lp674
sg51
g54
sg55
F0.5
sg56
I128
sg57
g58
sg59
g60
sg61
g62
sg63
g64
sg65
F1.5
sg66
g67
sg68
I0
sg69
F90.0
sg70
g71
sg73
I8
sg74
F270.0
sg75
g76
sg81
F0.5
sg82
I8
sg83
F5.0
sg84
F0.0
sg85
I0
sg86
F0.65
sa(dp675
g4
F0.03
sg5
I63
sg6
g7
sg8
g9
sg12
I0
sg13
I55
sg14
F20.0
sg15
I2
sg16
F0.5
sg17
F0.15
sg18
F0.15
sg19
I0
sg20
g21
sg22
I1
sg23
g24
sg27
g28
sg29
F219.9787790775299
sg30
F0.945
sg31
I3
sg32
F0.2
sg33
I15
sg34
g35
sg36
F1.0
sg37
I75
sg38
I8
sg39
F0.75
sg40
g41
sg49
g128
(g129
(I0
tp676
g10
tp677
Rp678
(I1
(I6
tp679
g137
I00
S'\x00\x00\x00\x00\x00Pi@&\x95\xa5\xadY)\xe7\xbf@1a0\xd2\xbc\xc0?2\x05b\xe8&\x1a\xec\xbf\x00\x00\x00\x00\x00\x00\x00\x00\x00\x00\x00\x00\x00\x00\x00\x00'
p680
tp681
bsg51
g54
sg55
F0.5
sg56
I128
sg57
g58
sg59
g60
sg61
g62
sg63
g64
sg65
F1.5
sg66
g67
sg68
I0
sg69
F90.0
sg70
g71
sg73
I8
sg74
F270.0
sg75
g76
sg81
F0.5
sg82
I8
sg83
F5.0
sg84
F0.0
sg85
I0
sg86
F0.65
sa(dp682
g4
F0.03
sg5
I63
sg6
g7
sg8
g9
sg12
I0
sg13
I55
sg14
F20.0
sg15
I2
sg16
F0.5
sg17
F0.15
sg18
F0.15
sg19
I0
sg20
g21
sg22
I1
sg23
g24
sg27
g28
sg29
F220.92000102996826
sg30
F0.945
sg31
I3
sg32
F0.2
sg33
I15
sg34
g35
sg36
F1.0
sg37
I75
sg38
I8
sg39
F0.75
sg40
g41
sg49
(lp683
sg51
g54
sg55
F0.5
sg56
I128
sg57
g58
sg59
g60
sg61
g62
sg63
g64
sg65
F1.5
sg66
g67
sg68
I0
sg69
F90.0
sg70
g71
sg73
I8
sg74
F270.0
sg75
g76
sg81
F0.5
sg82
I8
sg83
F5.0
sg84
F0.0
sg85
I0
sg86
F0.65
sa(dp684
g4
F0.03
sg5
I63
sg6
g7
sg8
g9
sg12
I0
sg13
I55
sg14
F20.0
sg15
I2
sg16
F0.5
sg17
F0.15
sg18
F0.15
sg19
I0
sg20
g21
sg22
I1
sg23
g24
sg27
g28
sg29
F221.8692409992218
sg30
F0.945
sg31
I3
sg32
F0.2
sg33
I15
sg34
g35
sg36
F1.0
sg37
I75
sg38
I8
sg39
F0.75
sg40
g41
sg49
g128
(g129
(I0
tp685
g10
tp686
Rp687
(I1
(I6
tp688
g137
I00
S'\x00\x00\x00\x00\x00Pi@\x00\x00\x00\x00\x00\x00\xf0\xbf\x88\x86a>51\xc7?\xb0\xaa\xa5\x0e\xac\x19\xe7?\x00\x00\x00\x00\x00\x00\x00\x00\x00\x00\x00\x00\x00\x00\x00\x00'
p689
tp690
bsg51
g54
sg55
F0.5
sg56
I128
sg57
g58
sg59
g60
sg61
g62
sg63
g64
sg65
F1.5
sg66
g67
sg68
I0
sg69
F90.0
sg70
g71
sg73
I8
sg74
F270.0
sg75
g76
sg81
F0.5
sg82
I8
sg83
F5.0
sg84
F0.0
sg85
I0
sg86
F0.65
sa(dp691
g4
F0.03
sg5
I63
sg6
g7
sg8
g9
sg12
I0
sg13
I55
sg14
F20.0
sg15
I2
sg16
F0.5
sg17
F0.15
sg18
F0.15
sg19
I0
sg20
g21
sg22
I1
sg23
g24
sg27
g28
sg29
F222.80811405181885
sg30
F0.945
sg31
I3
sg32
F0.2
sg33
I15
sg34
g35
sg36
F1.0
sg37
I75
sg38
I8
sg39
F0.75
sg40
g41
sg49
(lp692
sg51
g54
sg55
F0.5
sg56
I128
sg57
g58
sg59
g60
sg61
g62
sg63
g64
sg65
F1.5
sg66
g67
sg68
I0
sg69
F90.0
sg70
g71
sg73
I8
sg74
F270.0
sg75
g76
sg81
F0.5
sg82
I8
sg83
F5.0
sg84
F0.0
sg85
I0
sg86
F0.65
sa(dp693
g4
F0.03
sg5
I63
sg6
g7
sg8
g9
sg12
I0
sg13
I55
sg14
F20.0
sg15
I2
sg16
F0.5
sg17
F0.15
sg18
F0.15
sg19
I0
sg20
g21
sg22
I1
sg23
g24
sg27
g28
sg29
F223.7521939277649
sg30
F0.945
sg31
I3
sg32
F0.2
sg33
I15
sg34
g35
sg36
F1.0
sg37
I75
sg38
I8
sg39
F0.75
sg40
g41
sg49
(lp694
sg51
g54
sg55
F0.5
sg56
I128
sg57
g58
sg59
g60
sg61
g62
sg63
g64
sg65
F1.5
sg66
g67
sg68
I0
sg69
F90.0
sg70
g71
sg73
I8
sg74
F270.0
sg75
g76
sg81
F0.5
sg82
I8
sg83
F5.0
sg84
F0.0
sg85
I0
sg86
F0.65
sa(dp695
g4
F0.03
sg5
I63
sg6
g7
sg8
g9
sg12
I0
sg13
I55
sg14
F20.0
sg15
I2
sg16
F0.5
sg17
F0.15
sg18
F0.15
sg19
I0
sg20
g21
sg22
I1
sg23
g24
sg27
g28
sg29
F224.69767498970032
sg30
F0.945
sg31
I3
sg32
F0.2
sg33
I15
sg34
g35
sg36
F1.0
sg37
I75
sg38
I8
sg39
F0.75
sg40
g41
sg49
(lp696
sg51
g54
sg55
F0.5
sg56
I128
sg57
g58
sg59
g60
sg61
g62
sg63
g64
sg65
F1.5
sg66
g67
sg68
I0
sg69
F90.0
sg70
g71
sg73
I8
sg74
F270.0
sg75
g76
sg81
F0.5
sg82
I8
sg83
F5.0
sg84
F0.0
sg85
I0
sg86
F0.65
sa(dp697
g4
F0.03
sg5
I63
sg6
g7
sg8
g9
sg12
I0
sg13
I55
sg14
F20.0
sg15
I2
sg16
F0.5
sg17
F0.15
sg18
F0.15
sg19
I0
sg20
g21
sg22
I1
sg23
g24
sg27
g28
sg29
F225.64202308654785
sg30
F0.945
sg31
I3
sg32
F0.2
sg33
I15
sg34
g35
sg36
F1.0
sg37
I75
sg38
I8
sg39
F0.75
sg40
g41
sg49
(lp698
sg51
g54
sg55
F0.5
sg56
I128
sg57
g58
sg59
g60
sg61
g62
sg63
g64
sg65
F1.5
sg66
g67
sg68
I0
sg69
F90.0
sg70
g71
sg73
I8
sg74
F270.0
sg75
g76
sg81
F0.5
sg82
I8
sg83
F5.0
sg84
F0.0
sg85
I0
sg86
F0.65
sa(dp699
g4
F0.03
sg5
I63
sg6
g7
sg8
g9
sg12
I0
sg13
I55
sg14
F20.0
sg15
I2
sg16
F0.5
sg17
F0.15
sg18
F0.15
sg19
I0
sg20
g21
sg22
I1
sg23
g24
sg27
g28
sg29
F226.58757996559143
sg30
F0.945
sg31
I3
sg32
F0.2
sg33
I15
sg34
g35
sg36
F1.0
sg37
I75
sg38
I8
sg39
F0.75
sg40
g41
sg49
(lp700
sg51
g54
sg55
F0.5
sg56
I128
sg57
g58
sg59
g60
sg61
g62
sg63
g64
sg65
F1.5
sg66
g67
sg68
I0
sg69
F90.0
sg70
g71
sg73
I8
sg74
F270.0
sg75
g76
sg81
F0.5
sg82
I8
sg83
F5.0
sg84
F0.0
sg85
I0
sg86
F0.65
sa(dp701
g4
F0.03
sg5
I63
sg6
g7
sg8
g9
sg12
I0
sg13
I55
sg14
F20.0
sg15
I2
sg16
F0.5
sg17
F0.15
sg18
F0.15
sg19
I0
sg20
g21
sg22
I1
sg23
g24
sg27
g28
sg29
F227.53212690353394
sg30
F0.945
sg31
I3
sg32
F0.2
sg33
I15
sg34
g35
sg36
F1.0
sg37
I75
sg38
I8
sg39
F0.75
sg40
g41
sg49
(lp702
sg51
g54
sg55
F0.5
sg56
I128
sg57
g58
sg59
g60
sg61
g62
sg63
g64
sg65
F1.5
sg66
g67
sg68
I0
sg69
F90.0
sg70
g71
sg73
I8
sg74
F270.0
sg75
g76
sg81
F0.5
sg82
I8
sg83
F5.0
sg84
F0.0
sg85
I0
sg86
F0.65
sa(dp703
g4
F0.03
sg5
I63
sg6
g7
sg8
g9
sg12
I0
sg13
I55
sg14
F20.0
sg15
I2
sg16
F0.5
sg17
F0.15
sg18
F0.15
sg19
I0
sg20
g21
sg22
I1
sg23
g24
sg27
g28
sg29
F228.47730898857117
sg30
F0.945
sg31
I3
sg32
F0.2
sg33
I15
sg34
g35
sg36
F1.0
sg37
I75
sg38
I8
sg39
F0.75
sg40
g41
sg49
(lp704
sg51
g54
sg55
F0.5
sg56
I128
sg57
g58
sg59
g60
sg61
g62
sg63
g64
sg65
F1.5
sg66
g67
sg68
I0
sg69
F90.0
sg70
g71
sg73
I8
sg74
F270.0
sg75
g76
sg81
F0.5
sg82
I8
sg83
F5.0
sg84
F0.0
sg85
I0
sg86
F0.65
sa(dp705
g4
F0.03
sg5
I63
sg6
g7
sg8
g9
sg12
I0
sg13
I55
sg14
F20.0
sg15
I2
sg16
F0.5
sg17
F0.15
sg18
F0.15
sg19
I0
sg20
g21
sg22
I1
sg23
g24
sg27
g28
sg29
F229.42834496498108
sg30
F0.945
sg31
I3
sg32
F0.2
sg33
I15
sg34
g35
sg36
F1.0
sg37
I75
sg38
I8
sg39
F0.75
sg40
g41
sg49
g128
(g129
(I0
tp706
g10
tp707
Rp708
(I1
(I6
tp709
g137
I00
S'\x00\x00\x00\x00\x00\xb0c@\xac\xbbn\xc9\xffF\xe8?\x02\x07\x8d\xd9\x12\xe8\xd9\xbf\xdcP\xaf\x11T\x07\xe8\xbf\x00\x00\x00\x00\x00\x00\x00\x00\x00\x00\x00\x00\x00\x00\x00\x00'
p710
tp711
bsg51
g54
sg55
F0.5
sg56
I128
sg57
g58
sg59
g60
sg61
g62
sg63
g64
sg65
F1.5
sg66
g67
sg68
I0
sg69
F90.0
sg70
g71
sg73
I8
sg74
F270.0
sg75
g76
sg81
F0.5
sg82
I8
sg83
F5.0
sg84
F0.0
sg85
I0
sg86
F0.65
sa(dp712
g4
F0.03
sg5
I63
sg6
g7
sg8
g9
sg12
I0
sg13
I55
sg14
F20.0
sg15
I2
sg16
F0.5
sg17
F0.15
sg18
F0.15
sg19
I0
sg20
g21
sg22
I1
sg23
g24
sg27
g28
sg29
F230.36725497245789
sg30
F0.945
sg31
I3
sg32
F0.2
sg33
I15
sg34
g35
sg36
F1.0
sg37
I75
sg38
I8
sg39
F0.75
sg40
g41
sg49
(lp713
sg51
g54
sg55
F0.5
sg56
I128
sg57
g58
sg59
g60
sg61
g62
sg63
g64
sg65
F1.5
sg66
g67
sg68
I0
sg69
F90.0
sg70
g71
sg73
I8
sg74
F270.0
sg75
g76
sg81
F0.5
sg82
I8
sg83
F5.0
sg84
F0.0
sg85
I0
sg86
F0.65
sa(dp714
g4
F0.03
sg5
I63
sg6
g7
sg8
g9
sg12
I0
sg13
I55
sg14
F20.0
sg15
I2
sg16
F0.5
sg17
F0.15
sg18
F0.15
sg19
I0
sg20
g21
sg22
I1
sg23
g24
sg27
g28
sg29
F231.31090593338013
sg30
F0.945
sg31
I3
sg32
F0.2
sg33
I15
sg34
g35
sg36
F1.0
sg37
I75
sg38
I8
sg39
F0.75
sg40
g41
sg49
(lp715
sg51
g54
sg55
F0.5
sg56
I128
sg57
g58
sg59
g60
sg61
g62
sg63
g64
sg65
F1.5
sg66
g67
sg68
I0
sg69
F90.0
sg70
g71
sg73
I8
sg74
F270.0
sg75
g76
sg81
F0.5
sg82
I8
sg83
F5.0
sg84
F0.0
sg85
I0
sg86
F0.65
sa(dp716
g4
F0.03
sg5
I63
sg6
g7
sg8
g9
sg12
I0
sg13
I55
sg14
F20.0
sg15
I2
sg16
F0.5
sg17
F0.15
sg18
F0.15
sg19
I0
sg20
g21
sg22
I1
sg23
g24
sg27
g28
sg29
F232.2566680908203
sg30
F0.945
sg31
I3
sg32
F0.2
sg33
I15
sg34
g35
sg36
F1.0
sg37
I75
sg38
I8
sg39
F0.75
sg40
g41
sg49
(lp717
sg51
g54
sg55
F0.5
sg56
I128
sg57
g58
sg59
g60
sg61
g62
sg63
g64
sg65
F1.5
sg66
g67
sg68
I0
sg69
F90.0
sg70
g71
sg73
I8
sg74
F270.0
sg75
g76
sg81
F0.5
sg82
I8
sg83
F5.0
sg84
F0.0
sg85
I0
sg86
F0.65
sa(dp718
g4
F0.03
sg5
I63
sg6
g7
sg8
g9
sg12
I0
sg13
I55
sg14
F20.0
sg15
I2
sg16
F0.5
sg17
F0.15
sg18
F0.15
sg19
I0
sg20
g21
sg22
I1
sg23
g24
sg27
g28
sg29
F233.2017719745636
sg30
F0.945
sg31
I3
sg32
F0.2
sg33
I15
sg34
g35
sg36
F1.0
sg37
I75
sg38
I8
sg39
F0.75
sg40
g41
sg49
(lp719
sg51
g54
sg55
F0.5
sg56
I128
sg57
g58
sg59
g60
sg61
g62
sg63
g64
sg65
F1.5
sg66
g67
sg68
I0
sg69
F90.0
sg70
g71
sg73
I8
sg74
F270.0
sg75
g76
sg81
F0.5
sg82
I8
sg83
F5.0
sg84
F0.0
sg85
I0
sg86
F0.65
sa(dp720
g4
F0.03
sg5
I63
sg6
g7
sg8
g9
sg12
I0
sg13
I55
sg14
F20.0
sg15
I2
sg16
F0.5
sg17
F0.15
sg18
F0.15
sg19
I0
sg20
g21
sg22
I1
sg23
g24
sg27
g28
sg29
F234.1472408771515
sg30
F0.945
sg31
I3
sg32
F0.2
sg33
I15
sg34
g35
sg36
F1.0
sg37
I75
sg38
I8
sg39
F0.75
sg40
g41
sg49
(lp721
sg51
g54
sg55
F0.5
sg56
I128
sg57
g58
sg59
g60
sg61
g62
sg63
g64
sg65
F1.5
sg66
g67
sg68
I0
sg69
F90.0
sg70
g71
sg73
I8
sg74
F270.0
sg75
g76
sg81
F0.5
sg82
I8
sg83
F5.0
sg84
F0.0
sg85
I0
sg86
F0.65
sa(dp722
g4
F0.03
sg5
I63
sg6
g7
sg8
g9
sg12
I0
sg13
I55
sg14
F20.0
sg15
I2
sg16
F0.5
sg17
F0.15
sg18
F0.15
sg19
I0
sg20
g21
sg22
I1
sg23
g24
sg27
g28
sg29
F235.0969099998474
sg30
F0.945
sg31
I3
sg32
F0.2
sg33
I15
sg34
g35
sg36
F1.0
sg37
I75
sg38
I8
sg39
F0.75
sg40
g41
sg49
g128
(g129
(I0
tp723
g10
tp724
Rp725
(I1
(I6
tp726
g137
I00
S'\x00\x00\x00\x00\x00\x80V@(\xfd\x95\xfe\x02;\xd4?N\x98v\x8a\xdb\xe8\xd3\xbfl\xcd\x82\xdd=\x90\xe7?\x00\x00\x00\x00\x00\x00\x00\x00\x00\x00\x00\x00\x00\x00\x00\x00'
p727
tp728
bsg51
g54
sg55
F0.5
sg56
I128
sg57
g58
sg59
g60
sg61
g62
sg63
g64
sg65
F1.5
sg66
g67
sg68
I0
sg69
F90.0
sg70
g71
sg73
I8
sg74
F270.0
sg75
g76
sg81
F0.5
sg82
I8
sg83
F5.0
sg84
F0.0
sg85
I0
sg86
F0.65
sa(dp729
g4
F0.03
sg5
I63
sg6
g7
sg8
g9
sg12
I0
sg13
I55
sg14
F20.0
sg15
I2
sg16
F0.5
sg17
F0.15
sg18
F0.15
sg19
I0
sg20
g21
sg22
I1
sg23
g24
sg27
g28
sg29
F236.03603506088257
sg30
F0.945
sg31
I3
sg32
F0.2
sg33
I15
sg34
g35
sg36
F1.0
sg37
I75
sg38
I8
sg39
F0.75
sg40
g41
sg49
(lp730
sg51
g54
sg55
F0.5
sg56
I128
sg57
g58
sg59
g60
sg61
g62
sg63
g64
sg65
F1.5
sg66
g67
sg68
I0
sg69
F90.0
sg70
g71
sg73
I8
sg74
F270.0
sg75
g76
sg81
F0.5
sg82
I8
sg83
F5.0
sg84
F0.0
sg85
I0
sg86
F0.65
sa(dp731
g4
F0.03
sg5
I63
sg6
g7
sg8
g9
sg12
I0
sg13
I55
sg14
F20.0
sg15
I2
sg16
F0.5
sg17
F0.15
sg18
F0.15
sg19
I0
sg20
g21
sg22
I1
sg23
g24
sg27
g28
sg29
F236.98128390312195
sg30
F0.945
sg31
I3
sg32
F0.2
sg33
I15
sg34
g35
sg36
F1.0
sg37
I75
sg38
I8
sg39
F0.75
sg40
g41
sg49
(lp732
sg51
g54
sg55
F0.5
sg56
I128
sg57
g58
sg59
g60
sg61
g62
sg63
g64
sg65
F1.5
sg66
g67
sg68
I0
sg69
F90.0
sg70
g71
sg73
I8
sg74
F270.0
sg75
g76
sg81
F0.5
sg82
I8
sg83
F5.0
sg84
F0.0
sg85
I0
sg86
F0.65
sa(dp733
g4
F0.03
sg5
I63
sg6
g7
sg8
g9
sg12
I0
sg13
I55
sg14
F20.0
sg15
I2
sg16
F0.5
sg17
F0.15
sg18
F0.15
sg19
I0
sg20
g21
sg22
I1
sg23
g24
sg27
g28
sg29
F237.92594695091248
sg30
F0.945
sg31
I3
sg32
F0.2
sg33
I15
sg34
g35
sg36
F1.0
sg37
I75
sg38
I8
sg39
F0.75
sg40
g41
sg49
(lp734
sg51
g54
sg55
F0.5
sg56
I128
sg57
g58
sg59
g60
sg61
g62
sg63
g64
sg65
F1.5
sg66
g67
sg68
I0
sg69
F90.0
sg70
g71
sg73
I8
sg74
F270.0
sg75
g76
sg81
F0.5
sg82
I8
sg83
F5.0
sg84
F0.0
sg85
I0
sg86
F0.65
sa(dp735
g4
F0.03
sg5
I63
sg6
g7
sg8
g9
sg12
I0
sg13
I55
sg14
F20.0
sg15
I2
sg16
F0.5
sg17
F0.15
sg18
F0.15
sg19
I0
sg20
g21
sg22
I1
sg23
g24
sg27
g28
sg29
F238.8707869052887
sg30
F0.945
sg31
I3
sg32
F0.2
sg33
I15
sg34
g35
sg36
F1.0
sg37
I75
sg38
I8
sg39
F0.75
sg40
g41
sg49
(lp736
sg51
g54
sg55
F0.5
sg56
I128
sg57
g58
sg59
g60
sg61
g62
sg63
g64
sg65
F1.5
sg66
g67
sg68
I0
sg69
F90.0
sg70
g71
sg73
I8
sg74
F270.0
sg75
g76
sg81
F0.5
sg82
I8
sg83
F5.0
sg84
F0.0
sg85
I0
sg86
F0.65
sa(dp737
g4
F0.03
sg5
I63
sg6
g7
sg8
g9
sg12
I0
sg13
I55
sg14
F20.0
sg15
I2
sg16
F0.5
sg17
F0.15
sg18
F0.15
sg19
I0
sg20
g21
sg22
I1
sg23
g24
sg27
g28
sg29
F239.8157079219818
sg30
F0.945
sg31
I3
sg32
F0.2
sg33
I15
sg34
g35
sg36
F1.0
sg37
I75
sg38
I8
sg39
F0.75
sg40
g41
sg49
(lp738
sg51
g54
sg55
F0.5
sg56
I128
sg57
g58
sg59
g60
sg61
g62
sg63
g64
sg65
F1.5
sg66
g67
sg68
I0
sg69
F90.0
sg70
g71
sg73
I8
sg74
F270.0
sg75
g76
sg81
F0.5
sg82
I8
sg83
F5.0
sg84
F0.0
sg85
I0
sg86
F0.65
sa(dp739
g4
F0.03
sg5
I63
sg6
g7
sg8
g9
sg12
I0
sg13
I55
sg14
F20.0
sg15
I2
sg16
F0.5
sg17
F0.15
sg18
F0.15
sg19
I0
sg20
g21
sg22
I1
sg23
g24
sg27
g28
sg29
F240.76005506515503
sg30
F0.945
sg31
I3
sg32
F0.2
sg33
I15
sg34
g35
sg36
F1.0
sg37
I75
sg38
I8
sg39
F0.75
sg40
g41
sg49
(lp740
sg51
g54
sg55
F0.5
sg56
I128
sg57
g58
sg59
g60
sg61
g62
sg63
g64
sg65
F1.5
sg66
g67
sg68
I0
sg69
F90.0
sg70
g71
sg73
I8
sg74
F270.0
sg75
g76
sg81
F0.5
sg82
I8
sg83
F5.0
sg84
F0.0
sg85
I0
sg86
F0.65
sa(dp741
g4
F0.03
sg5
I63
sg6
g7
sg8
g9
sg12
I0
sg13
I55
sg14
F20.0
sg15
I2
sg16
F0.5
sg17
F0.15
sg18
F0.15
sg19
I0
sg20
g21
sg22
I1
sg23
g24
sg27
g28
sg29
F241.70486903190613
sg30
F0.945
sg31
I3
sg32
F0.2
sg33
I15
sg34
g35
sg36
F1.0
sg37
I75
sg38
I8
sg39
F0.75
sg40
g41
sg49
(lp742
sg51
g54
sg55
F0.5
sg56
I128
sg57
g58
sg59
g60
sg61
g62
sg63
g64
sg65
F1.5
sg66
g67
sg68
I0
sg69
F90.0
sg70
g71
sg73
I8
sg74
F270.0
sg75
g76
sg81
F0.5
sg82
I8
sg83
F5.0
sg84
F0.0
sg85
I0
sg86
F0.65
sa(dp743
g4
F0.03
sg5
I63
sg6
g7
sg8
g9
sg12
I0
sg13
I55
sg14
F20.0
sg15
I2
sg16
F0.5
sg17
F0.15
sg18
F0.15
sg19
I0
sg20
g21
sg22
I1
sg23
g24
sg27
g28
sg29
F242.65039491653442
sg30
F0.945
sg31
I3
sg32
F0.2
sg33
I15
sg34
g35
sg36
F1.0
sg37
I75
sg38
I8
sg39
F0.75
sg40
g41
sg49
(lp744
sg51
g54
sg55
F0.5
sg56
I128
sg57
g58
sg59
g60
sg61
g62
sg63
g64
sg65
F1.5
sg66
g67
sg68
I0
sg69
F90.0
sg70
g71
sg73
I8
sg74
F270.0
sg75
g76
sg81
F0.5
sg82
I8
sg83
F5.0
sg84
F0.0
sg85
I0
sg86
F0.65
sa(dp745
g4
F0.03
sg5
I63
sg6
g7
sg8
g9
sg12
I0
sg13
I55
sg14
F20.0
sg15
I2
sg16
F0.5
sg17
F0.15
sg18
F0.15
sg19
I0
sg20
g21
sg22
I1
sg23
g24
sg27
g28
sg29
F243.5955410003662
sg30
F0.945
sg31
I3
sg32
F0.2
sg33
I15
sg34
g35
sg36
F1.0
sg37
I75
sg38
I8
sg39
F0.75
sg40
g41
sg49
(lp746
sg51
g54
sg55
F0.5
sg56
I128
sg57
g58
sg59
g60
sg61
g62
sg63
g64
sg65
F1.5
sg66
g67
sg68
I0
sg69
F90.0
sg70
g71
sg73
I8
sg74
F270.0
sg75
g76
sg81
F0.5
sg82
I8
sg83
F5.0
sg84
F0.0
sg85
I0
sg86
F0.65
sa(dp747
g4
F0.03
sg5
I63
sg6
g7
sg8
g9
sg12
I0
sg13
I55
sg14
F20.0
sg15
I2
sg16
F0.5
sg17
F0.15
sg18
F0.15
sg19
I0
sg20
g21
sg22
I1
sg23
g24
sg27
g28
sg29
F244.54345798492432
sg30
F0.945
sg31
I3
sg32
F0.2
sg33
I15
sg34
g35
sg36
F1.0
sg37
I75
sg38
I8
sg39
F0.75
sg40
g41
sg49
g128
(g129
(I0
tp748
g10
tp749
Rp750
(I1
(I6
tp751
g137
I00
S'\x00\x00\x00\x00\x00\xb0c@\x00\x00\x00\x00\x00\x00\xf0\xbfP\xbf\x14\xf1\xc8\n\xc9?\xd0\xfd\xf34\xff\xcd\xa9\xbf\x00\x00\x00\x00\x00\x00\x00\x00\x00\x00\x00\x00\x00\x00\x00\x00'
p752
tp753
bsg51
g54
sg55
F0.5
sg56
I128
sg57
g58
sg59
g60
sg61
g62
sg63
g64
sg65
F1.5
sg66
g67
sg68
I0
sg69
F90.0
sg70
g71
sg73
I8
sg74
F270.0
sg75
g76
sg81
F0.5
sg82
I8
sg83
F5.0
sg84
F0.0
sg85
I0
sg86
F0.65
sa(dp754
g4
F0.03
sg5
I63
sg6
g7
sg8
g9
sg12
I0
sg13
I55
sg14
F20.0
sg15
I2
sg16
F0.5
sg17
F0.15
sg18
F0.15
sg19
I0
sg20
g21
sg22
I1
sg23
g24
sg27
g28
sg29
F245.48426008224487
sg30
F0.945
sg31
I3
sg32
F0.2
sg33
I15
sg34
g35
sg36
F1.0
sg37
I75
sg38
I8
sg39
F0.75
sg40
g41
sg49
(lp755
sg51
g54
sg55
F0.5
sg56
I128
sg57
g58
sg59
g60
sg61
g62
sg63
g64
sg65
F1.5
sg66
g67
sg68
I0
sg69
F90.0
sg70
g71
sg73
I8
sg74
F270.0
sg75
g76
sg81
F0.5
sg82
I8
sg83
F5.0
sg84
F0.0
sg85
I0
sg86
F0.65
sa(dp756
g4
F0.03
sg5
I63
sg6
g7
sg8
g9
sg12
I0
sg13
I55
sg14
F20.0
sg15
I2
sg16
F0.5
sg17
F0.15
sg18
F0.15
sg19
I0
sg20
g21
sg22
I1
sg23
g24
sg27
g28
sg29
F246.4287519454956
sg30
F0.945
sg31
I3
sg32
F0.2
sg33
I15
sg34
g35
sg36
F1.0
sg37
I75
sg38
I8
sg39
F0.75
sg40
g41
sg49
(lp757
sg51
g54
sg55
F0.5
sg56
I128
sg57
g58
sg59
g60
sg61
g62
sg63
g64
sg65
F1.5
sg66
g67
sg68
I0
sg69
F90.0
sg70
g71
sg73
I8
sg74
F270.0
sg75
g76
sg81
F0.5
sg82
I8
sg83
F5.0
sg84
F0.0
sg85
I0
sg86
F0.65
sa(dp758
g4
F0.03
sg5
I63
sg6
g7
sg8
g9
sg12
I0
sg13
I55
sg14
F20.0
sg15
I2
sg16
F0.5
sg17
F0.15
sg18
F0.15
sg19
I0
sg20
g21
sg22
I1
sg23
g24
sg27
g28
sg29
F247.37417697906494
sg30
F0.945
sg31
I3
sg32
F0.2
sg33
I15
sg34
g35
sg36
F1.0
sg37
I75
sg38
I8
sg39
F0.75
sg40
g41
sg49
(lp759
sg51
g54
sg55
F0.5
sg56
I128
sg57
g58
sg59
g60
sg61
g62
sg63
g64
sg65
F1.5
sg66
g67
sg68
I0
sg69
F90.0
sg70
g71
sg73
I8
sg74
F270.0
sg75
g76
sg81
F0.5
sg82
I8
sg83
F5.0
sg84
F0.0
sg85
I0
sg86
F0.65
sa(dp760
g4
F0.03
sg5
I63
sg6
g7
sg8
g9
sg12
I0
sg13
I55
sg14
F20.0
sg15
I2
sg16
F0.5
sg17
F0.15
sg18
F0.15
sg19
I0
sg20
g21
sg22
I1
sg23
g24
sg27
g28
sg29
F248.31797289848328
sg30
F0.945
sg31
I3
sg32
F0.2
sg33
I15
sg34
g35
sg36
F1.0
sg37
I75
sg38
I8
sg39
F0.75
sg40
g41
sg49
(lp761
sg51
g54
sg55
F0.5
sg56
I128
sg57
g58
sg59
g60
sg61
g62
sg63
g64
sg65
F1.5
sg66
g67
sg68
I0
sg69
F90.0
sg70
g71
sg73
I8
sg74
F270.0
sg75
g76
sg81
F0.5
sg82
I8
sg83
F5.0
sg84
F0.0
sg85
I0
sg86
F0.65
sa(dp762
g4
F0.03
sg5
I63
sg6
g7
sg8
g9
sg12
I0
sg13
I55
sg14
F20.0
sg15
I2
sg16
F0.5
sg17
F0.15
sg18
F0.15
sg19
I0
sg20
g21
sg22
I1
sg23
g24
sg27
g28
sg29
F249.26416897773743
sg30
F0.945
sg31
I3
sg32
F0.2
sg33
I15
sg34
g35
sg36
F1.0
sg37
I75
sg38
I8
sg39
F0.75
sg40
g41
sg49
(lp763
sg51
g54
sg55
F0.5
sg56
I128
sg57
g58
sg59
g60
sg61
g62
sg63
g64
sg65
F1.5
sg66
g67
sg68
I0
sg69
F90.0
sg70
g71
sg73
I8
sg74
F270.0
sg75
g76
sg81
F0.5
sg82
I8
sg83
F5.0
sg84
F0.0
sg85
I0
sg86
F0.65
sa(dp764
g4
F0.03
sg5
I63
sg6
g7
sg8
g9
sg12
I0
sg13
I55
sg14
F20.0
sg15
I2
sg16
F0.5
sg17
F0.15
sg18
F0.15
sg19
I0
sg20
g21
sg22
I1
sg23
g24
sg27
g28
sg29
F250.21390509605408
sg30
F0.945
sg31
I3
sg32
F0.2
sg33
I15
sg34
g35
sg36
F1.0
sg37
I75
sg38
I8
sg39
F0.75
sg40
g41
sg49
g128
(g129
(I0
tp765
g10
tp766
Rp767
(I1
(I6
tp768
g137
I00
S'\x00\x00\x00\x00\x00Pi@PMx\x12+\x80\xc8?\xd0\x88\xefwA\xdd\xab\xbf\x00\x00\x00\x00\x00\x00\xf0\xbf\x00\x00\x00\x00\x00\x00\x00\x00\x00\x00\x00\x00\x00\x00\x00\x00'
p769
tp770
bsg51
g54
sg55
F0.5
sg56
I128
sg57
g58
sg59
g60
sg61
g62
sg63
g64
sg65
F1.5
sg66
g67
sg68
I0
sg69
F90.0
sg70
g71
sg73
I8
sg74
F270.0
sg75
g76
sg81
F0.5
sg82
I8
sg83
F5.0
sg84
F0.0
sg85
I0
sg86
F0.65
sa(dp771
g4
F0.03
sg5
I63
sg6
g7
sg8
g9
sg12
I0
sg13
I55
sg14
F20.0
sg15
I2
sg16
F0.5
sg17
F0.15
sg18
F0.15
sg19
I0
sg20
g21
sg22
I1
sg23
g24
sg27
g28
sg29
F251.1521348953247
sg30
F0.945
sg31
I3
sg32
F0.2
sg33
I15
sg34
g35
sg36
F1.0
sg37
I75
sg38
I8
sg39
F0.75
sg40
g41
sg49
(lp772
sg51
g54
sg55
F0.5
sg56
I128
sg57
g58
sg59
g60
sg61
g62
sg63
g64
sg65
F1.5
sg66
g67
sg68
I0
sg69
F90.0
sg70
g71
sg73
I8
sg74
F270.0
sg75
g76
sg81
F0.5
sg82
I8
sg83
F5.0
sg84
F0.0
sg85
I0
sg86
F0.65
sa(dp773
g4
F0.03
sg5
I63
sg6
g7
sg8
g9
sg12
I0
sg13
I55
sg14
F20.0
sg15
I2
sg16
F0.5
sg17
F0.15
sg18
F0.15
sg19
I0
sg20
g21
sg22
I1
sg23
g24
sg27
g28
sg29
F252.09923887252808
sg30
F0.945
sg31
I3
sg32
F0.2
sg33
I15
sg34
g35
sg36
F1.0
sg37
I75
sg38
I8
sg39
F0.75
sg40
g41
sg49
(lp774
sg51
g54
sg55
F0.5
sg56
I128
sg57
g58
sg59
g60
sg61
g62
sg63
g64
sg65
F1.5
sg66
g67
sg68
I0
sg69
F90.0
sg70
g71
sg73
I8
sg74
F270.0
sg75
g76
sg81
F0.5
sg82
I8
sg83
F5.0
sg84
F0.0
sg85
I0
sg86
F0.65
sa(dp775
g4
F0.03
sg5
I63
sg6
g7
sg8
g9
sg12
I0
sg13
I55
sg14
F20.0
sg15
I2
sg16
F0.5
sg17
F0.15
sg18
F0.15
sg19
I0
sg20
g21
sg22
I1
sg23
g24
sg27
g28
sg29
F253.04255509376526
sg30
F0.945
sg31
I3
sg32
F0.2
sg33
I15
sg34
g35
sg36
F1.0
sg37
I75
sg38
I8
sg39
F0.75
sg40
g41
sg49
(lp776
sg51
g54
sg55
F0.5
sg56
I128
sg57
g58
sg59
g60
sg61
g62
sg63
g64
sg65
F1.5
sg66
g67
sg68
I0
sg69
F90.0
sg70
g71
sg73
I8
sg74
F270.0
sg75
g76
sg81
F0.5
sg82
I8
sg83
F5.0
sg84
F0.0
sg85
I0
sg86
F0.65
sa(dp777
g4
F0.03
sg5
I63
sg6
g7
sg8
g9
sg12
I0
sg13
I55
sg14
F20.0
sg15
I2
sg16
F0.5
sg17
F0.15
sg18
F0.15
sg19
I0
sg20
g21
sg22
I1
sg23
g24
sg27
g28
sg29
F253.9879879951477
sg30
F0.945
sg31
I3
sg32
F0.2
sg33
I15
sg34
g35
sg36
F1.0
sg37
I75
sg38
I8
sg39
F0.75
sg40
g41
sg49
(lp778
sg51
g54
sg55
F0.5
sg56
I128
sg57
g58
sg59
g60
sg61
g62
sg63
g64
sg65
F1.5
sg66
g67
sg68
I0
sg69
F90.0
sg70
g71
sg73
I8
sg74
F270.0
sg75
g76
sg81
F0.5
sg82
I8
sg83
F5.0
sg84
F0.0
sg85
I0
sg86
F0.65
sa(dp779
g4
F0.03
sg5
I63
sg6
g7
sg8
g9
sg12
I0
sg13
I55
sg14
F20.0
sg15
I2
sg16
F0.5
sg17
F0.15
sg18
F0.15
sg19
I0
sg20
g21
sg22
I1
sg23
g24
sg27
g28
sg29
F254.93267703056335
sg30
F0.945
sg31
I3
sg32
F0.2
sg33
I15
sg34
g35
sg36
F1.0
sg37
I75
sg38
I8
sg39
F0.75
sg40
g41
sg49
(lp780
sg51
g54
sg55
F0.5
sg56
I128
sg57
g58
sg59
g60
sg61
g62
sg63
g64
sg65
F1.5
sg66
g67
sg68
I0
sg69
F90.0
sg70
g71
sg73
I8
sg74
F270.0
sg75
g76
sg81
F0.5
sg82
I8
sg83
F5.0
sg84
F0.0
sg85
I0
sg86
F0.65
sa(dp781
g4
F0.03
sg5
I63
sg6
g7
sg8
g9
sg12
I0
sg13
I55
sg14
F20.0
sg15
I2
sg16
F0.5
sg17
F0.15
sg18
F0.15
sg19
I0
sg20
g21
sg22
I1
sg23
g24
sg27
g28
sg29
F255.8781280517578
sg30
F0.945
sg31
I3
sg32
F0.2
sg33
I15
sg34
g35
sg36
F1.0
sg37
I75
sg38
I8
sg39
F0.75
sg40
g41
sg49
(lp782
sg51
g54
sg55
F0.5
sg56
I128
sg57
g58
sg59
g60
sg61
g62
sg63
g64
sg65
F1.5
sg66
g67
sg68
I0
sg69
F90.0
sg70
g71
sg73
I8
sg74
F270.0
sg75
g76
sg81
F0.5
sg82
I8
sg83
F5.0
sg84
F0.0
sg85
I0
sg86
F0.65
sa(dp783
g4
F0.03
sg5
I63
sg6
g7
sg8
g9
sg12
I0
sg13
I55
sg14
F20.0
sg15
I2
sg16
F0.5
sg17
F0.15
sg18
F0.15
sg19
I0
sg20
g21
sg22
I1
sg23
g24
sg27
g28
sg29
F256.8234279155731
sg30
F0.945
sg31
I3
sg32
F0.2
sg33
I15
sg34
g35
sg36
F1.0
sg37
I75
sg38
I8
sg39
F0.75
sg40
g41
sg49
(lp784
sg51
g54
sg55
F0.5
sg56
I128
sg57
g58
sg59
g60
sg61
g62
sg63
g64
sg65
F1.5
sg66
g67
sg68
I0
sg69
F90.0
sg70
g71
sg73
I8
sg74
F270.0
sg75
g76
sg81
F0.5
sg82
I8
sg83
F5.0
sg84
F0.0
sg85
I0
sg86
F0.65
sa(dp785
g4
F0.03
sg5
I63
sg6
g7
sg8
g9
sg12
I0
sg13
I55
sg14
F20.0
sg15
I2
sg16
F0.5
sg17
F0.15
sg18
F0.15
sg19
I0
sg20
g21
sg22
I1
sg23
g24
sg27
g28
sg29
F257.77293491363525
sg30
F0.945
sg31
I3
sg32
F0.2
sg33
I15
sg34
g35
sg36
F1.0
sg37
I75
sg38
I8
sg39
F0.75
sg40
g41
sg49
g128
(g129
(I0
tp786
g10
tp787
Rp788
(I1
(I6
tp789
g137
I00
S'\x00\x00\x00\x00\x00\xe0`@&\x95\xa5\xadY)\xe7\xbf@1a0\xd2\xbc\xc0?2\x05b\xe8&\x1a\xec\xbf\x00\x00\x00\x00\x00\x00\x00\x00\x00\x00\x00\x00\x00\x00\x00\x00'
p790
tp791
bsg51
g54
sg55
F0.5
sg56
I128
sg57
g58
sg59
g60
sg61
g62
sg63
g64
sg65
F1.5
sg66
g67
sg68
I0
sg69
F90.0
sg70
g71
sg73
I8
sg74
F270.0
sg75
g76
sg81
F0.5
sg82
I8
sg83
F5.0
sg84
F0.0
sg85
I0
sg86
F0.65
sa(dp792
g4
F0.03
sg5
I63
sg6
g7
sg8
g9
sg12
I0
sg13
I55
sg14
F20.0
sg15
I2
sg16
F0.5
sg17
F0.15
sg18
F0.15
sg19
I0
sg20
g21
sg22
I1
sg23
g24
sg27
g28
sg29
F258.7116849422455
sg30
F0.945
sg31
I3
sg32
F0.2
sg33
I15
sg34
g35
sg36
F1.0
sg37
I75
sg38
I8
sg39
F0.75
sg40
g41
sg49
(lp793
sg51
g54
sg55
F0.5
sg56
I128
sg57
g58
sg59
g60
sg61
g62
sg63
g64
sg65
F1.5
sg66
g67
sg68
I0
sg69
F90.0
sg70
g71
sg73
I8
sg74
F270.0
sg75
g76
sg81
F0.5
sg82
I8
sg83
F5.0
sg84
F0.0
sg85
I0
sg86
F0.65
sa(dp794
g4
F0.03
sg5
I63
sg6
g7
sg8
g9
sg12
I0
sg13
I55
sg14
F20.0
sg15
I2
sg16
F0.5
sg17
F0.15
sg18
F0.15
sg19
I0
sg20
g21
sg22
I1
sg23
g24
sg27
g28
sg29
F259.65751600265503
sg30
F0.945
sg31
I3
sg32
F0.2
sg33
I15
sg34
g35
sg36
F1.0
sg37
I75
sg38
I8
sg39
F0.75
sg40
g41
sg49
(lp795
sg51
g54
sg55
F0.5
sg56
I128
sg57
g58
sg59
g60
sg61
g62
sg63
g64
sg65
F1.5
sg66
g67
sg68
I0
sg69
F90.0
sg70
g71
sg73
I8
sg74
F270.0
sg75
g76
sg81
F0.5
sg82
I8
sg83
F5.0
sg84
F0.0
sg85
I0
sg86
F0.65
sa(dp796
g4
F0.03
sg5
I63
sg6
g7
sg8
g9
sg12
I0
sg13
I55
sg14
F20.0
sg15
I2
sg16
F0.5
sg17
F0.15
sg18
F0.15
sg19
I0
sg20
g21
sg22
I1
sg23
g24
sg27
g28
sg29
F260.60761189460754
sg30
F0.945
sg31
I3
sg32
F0.2
sg33
I15
sg34
g35
sg36
F1.0
sg37
I75
sg38
I8
sg39
F0.75
sg40
g41
sg49
(lp797
sg51
g54
sg55
F0.5
sg56
I128
sg57
g58
sg59
g60
sg61
g62
sg63
g64
sg65
F1.5
sg66
g67
sg68
I0
sg69
F90.0
sg70
g71
sg73
I8
sg74
F270.0
sg75
g76
sg81
F0.5
sg82
I8
sg83
F5.0
sg84
F0.0
sg85
I0
sg86
F0.65
sa(dp798
g4
F0.03
sg5
I63
sg6
g7
sg8
g9
sg12
I0
sg13
I55
sg14
F20.0
sg15
I2
sg16
F0.5
sg17
F0.15
sg18
F0.15
sg19
I0
sg20
g21
sg22
I1
sg23
g24
sg27
g28
sg29
F261.54654598236084
sg30
F0.945
sg31
I3
sg32
F0.2
sg33
I15
sg34
g35
sg36
F1.0
sg37
I75
sg38
I8
sg39
F0.75
sg40
g41
sg49
(lp799
sg51
g54
sg55
F0.5
sg56
I128
sg57
g58
sg59
g60
sg61
g62
sg63
g64
sg65
F1.5
sg66
g67
sg68
I0
sg69
F90.0
sg70
g71
sg73
I8
sg74
F270.0
sg75
g76
sg81
F0.5
sg82
I8
sg83
F5.0
sg84
F0.0
sg85
I0
sg86
F0.65
sa(dp800
g4
F0.03
sg5
I63
sg6
g7
sg8
g9
sg12
I0
sg13
I55
sg14
F20.0
sg15
I2
sg16
F0.5
sg17
F0.15
sg18
F0.15
sg19
I0
sg20
g21
sg22
I1
sg23
g24
sg27
g28
sg29
F262.49107003211975
sg30
F0.945
sg31
I3
sg32
F0.2
sg33
I15
sg34
g35
sg36
F1.0
sg37
I75
sg38
I8
sg39
F0.75
sg40
g41
sg49
(lp801
sg51
g54
sg55
F0.5
sg56
I128
sg57
g58
sg59
g60
sg61
g62
sg63
g64
sg65
F1.5
sg66
g67
sg68
I0
sg69
F90.0
sg70
g71
sg73
I8
sg74
F270.0
sg75
g76
sg81
F0.5
sg82
I8
sg83
F5.0
sg84
F0.0
sg85
I0
sg86
F0.65
sa(dp802
g4
F0.03
sg5
I63
sg6
g7
sg8
g9
sg12
I0
sg13
I55
sg14
F20.0
sg15
I2
sg16
F0.5
sg17
F0.15
sg18
F0.15
sg19
I0
sg20
g21
sg22
I1
sg23
g24
sg27
g28
sg29
F263.43742203712463
sg30
F0.945
sg31
I3
sg32
F0.2
sg33
I15
sg34
g35
sg36
F1.0
sg37
I75
sg38
I8
sg39
F0.75
sg40
g41
sg49
(lp803
sg51
g54
sg55
F0.5
sg56
I128
sg57
g58
sg59
g60
sg61
g62
sg63
g64
sg65
F1.5
sg66
g67
sg68
I0
sg69
F90.0
sg70
g71
sg73
I8
sg74
F270.0
sg75
g76
sg81
F0.5
sg82
I8
sg83
F5.0
sg84
F0.0
sg85
I0
sg86
F0.65
sa(dp804
g4
F0.03
sg5
I63
sg6
g7
sg8
g9
sg12
I0
sg13
I55
sg14
F20.0
sg15
I2
sg16
F0.5
sg17
F0.15
sg18
F0.15
sg19
I0
sg20
g21
sg22
I1
sg23
g24
sg27
g28
sg29
F264.38160395622253
sg30
F0.945
sg31
I3
sg32
F0.2
sg33
I15
sg34
g35
sg36
F1.0
sg37
I75
sg38
I8
sg39
F0.75
sg40
g41
sg49
(lp805
sg51
g54
sg55
F0.5
sg56
I128
sg57
g58
sg59
g60
sg61
g62
sg63
g64
sg65
F1.5
sg66
g67
sg68
I0
sg69
F90.0
sg70
g71
sg73
I8
sg74
F270.0
sg75
g76
sg81
F0.5
sg82
I8
sg83
F5.0
sg84
F0.0
sg85
I0
sg86
F0.65
sa(dp806
g4
F0.03
sg5
I63
sg6
g7
sg8
g9
sg12
I0
sg13
I55
sg14
F20.0
sg15
I2
sg16
F0.5
sg17
F0.15
sg18
F0.15
sg19
I0
sg20
g21
sg22
I1
sg23
g24
sg27
g28
sg29
F265.33297300338745
sg30
F0.945
sg31
I3
sg32
F0.2
sg33
I15
sg34
g35
sg36
F1.0
sg37
I75
sg38
I8
sg39
F0.75
sg40
g41
sg49
g128
(g129
(I0
tp807
g10
tp808
Rp809
(I1
(I6
tp810
g137
I00
S'\x00\x00\x00\x00\x00 \\@\xb2\xf2\x90\x1b=l\xec?\xe6L\x16\x9b\xaa`\xe5\xbf\xc0\x1e\xa8cy_\x87\xbf\x00\x00\x00\x00\x00\x00\x00\x00\x00\x00\x00\x00\x00\x00\x00\x00'
p811
tp812
bsg51
g54
sg55
F0.5
sg56
I128
sg57
g58
sg59
g60
sg61
g62
sg63
g64
sg65
F1.5
sg66
g67
sg68
I0
sg69
F90.0
sg70
g71
sg73
I8
sg74
F270.0
sg75
g76
sg81
F0.5
sg82
I8
sg83
F5.0
sg84
F0.0
sg85
I0
sg86
F0.65
sa(dp813
g4
F0.03
sg5
I63
sg6
g7
sg8
g9
sg12
I0
sg13
I55
sg14
F20.0
sg15
I2
sg16
F0.5
sg17
F0.15
sg18
F0.15
sg19
I0
sg20
g21
sg22
I1
sg23
g24
sg27
g28
sg29
F266.27014088630676
sg30
F0.945
sg31
I3
sg32
F0.2
sg33
I15
sg34
g35
sg36
F1.0
sg37
I75
sg38
I8
sg39
F0.75
sg40
g41
sg49
(lp814
sg51
g54
sg55
F0.5
sg56
I128
sg57
g58
sg59
g60
sg61
g62
sg63
g64
sg65
F1.5
sg66
g67
sg68
I0
sg69
F90.0
sg70
g71
sg73
I8
sg74
F270.0
sg75
g76
sg81
F0.5
sg82
I8
sg83
F5.0
sg84
F0.0
sg85
I0
sg86
F0.65
sa(dp815
g4
F0.03
sg5
I63
sg6
g7
sg8
g9
sg12
I0
sg13
I55
sg14
F20.0
sg15
I2
sg16
F0.5
sg17
F0.15
sg18
F0.15
sg19
I0
sg20
g21
sg22
I1
sg23
g24
sg27
g28
sg29
F267.2158799171448
sg30
F0.945
sg31
I3
sg32
F0.2
sg33
I15
sg34
g35
sg36
F1.0
sg37
I75
sg38
I8
sg39
F0.75
sg40
g41
sg49
(lp816
sg51
g54
sg55
F0.5
sg56
I128
sg57
g58
sg59
g60
sg61
g62
sg63
g64
sg65
F1.5
sg66
g67
sg68
I0
sg69
F90.0
sg70
g71
sg73
I8
sg74
F270.0
sg75
g76
sg81
F0.5
sg82
I8
sg83
F5.0
sg84
F0.0
sg85
I0
sg86
F0.65
sa(dp817
g4
F0.03
sg5
I63
sg6
g7
sg8
g9
sg12
I0
sg13
I55
sg14
F20.0
sg15
I2
sg16
F0.5
sg17
F0.15
sg18
F0.15
sg19
I0
sg20
g21
sg22
I1
sg23
g24
sg27
g28
sg29
F268.1605050563812
sg30
F0.945
sg31
I3
sg32
F0.2
sg33
I15
sg34
g35
sg36
F1.0
sg37
I75
sg38
I8
sg39
F0.75
sg40
g41
sg49
(lp818
sg51
g54
sg55
F0.5
sg56
I128
sg57
g58
sg59
g60
sg61
g62
sg63
g64
sg65
F1.5
sg66
g67
sg68
I0
sg69
F90.0
sg70
g71
sg73
I8
sg74
F270.0
sg75
g76
sg81
F0.5
sg82
I8
sg83
F5.0
sg84
F0.0
sg85
I0
sg86
F0.65
sa(dp819
g4
F0.03
sg5
I63
sg6
g7
sg8
g9
sg12
I0
sg13
I55
sg14
F20.0
sg15
I2
sg16
F0.5
sg17
F0.15
sg18
F0.15
sg19
I0
sg20
g21
sg22
I1
sg23
g24
sg27
g28
sg29
F269.1092710494995
sg30
F0.945
sg31
I3
sg32
F0.2
sg33
I15
sg34
g35
sg36
F1.0
sg37
I75
sg38
I8
sg39
F0.75
sg40
g41
sg49
g128
(g129
(I0
tp820
g10
tp821
Rp822
(I1
(I6
tp823
g137
I00
S'\x00\x00\x00\x00\x00\xf0n@\x00\x00\x00\x00\x00\x00\xf0\xbfP\xbf\x14\xf1\xc8\n\xc9?\xd0\xfd\xf34\xff\xcd\xa9\xbf\x00\x00\x00\x00\x00\x00\x00\x00\x00\x00\x00\x00\x00\x00\x00\x00'
p824
tp825
bsg51
g54
sg55
F0.5
sg56
I128
sg57
g58
sg59
g60
sg61
g62
sg63
g64
sg65
F1.5
sg66
g67
sg68
I0
sg69
F90.0
sg70
g71
sg73
I8
sg74
F270.0
sg75
g76
sg81
F0.5
sg82
I8
sg83
F5.0
sg84
F0.0
sg85
I0
sg86
F0.65
sa(dp826
g4
F0.03
sg5
I63
sg6
g7
sg8
g9
sg12
I0
sg13
I55
sg14
F20.0
sg15
I2
sg16
F0.5
sg17
F0.15
sg18
F0.15
sg19
I0
sg20
g21
sg22
I1
sg23
g24
sg27
g28
sg29
F270.0503509044647
sg30
F0.945
sg31
I3
sg32
F0.2
sg33
I15
sg34
g35
sg36
F1.0
sg37
I75
sg38
I8
sg39
F0.75
sg40
g41
sg49
(lp827
sg51
g54
sg55
F0.5
sg56
I128
sg57
g58
sg59
g60
sg61
g62
sg63
g64
sg65
F1.5
sg66
g67
sg68
I0
sg69
F90.0
sg70
g71
sg73
I8
sg74
F270.0
sg75
g76
sg81
F0.5
sg82
I8
sg83
F5.0
sg84
F0.0
sg85
I0
sg86
F0.65
sa(dp828
g4
F0.03
sg5
I63
sg6
g7
sg8
g9
sg12
I0
sg13
I55
sg14
F20.0
sg15
I2
sg16
F0.5
sg17
F0.15
sg18
F0.15
sg19
I0
sg20
g21
sg22
I1
sg23
g24
sg27
g28
sg29
F270.9996030330658
sg30
F0.945
sg31
I3
sg32
F0.2
sg33
I15
sg34
g35
sg36
F1.0
sg37
I75
sg38
I8
sg39
F0.75
sg40
g41
sg49
g128
(g129
(I0
tp829
g10
tp830
Rp831
(I1
(I6
tp832
g137
I00
S'\x00\x00\x00\x00\x00 \\@(\xfd\x95\xfe\x02;\xd4?N\x98v\x8a\xdb\xe8\xd3\xbfl\xcd\x82\xdd=\x90\xe7?\x00\x00\x00\x00\x00\x00\x00\x00\x00\x00\x00\x00\x00\x00\x00\x00'
p833
tp834
bsg51
g54
sg55
F0.5
sg56
I128
sg57
g58
sg59
g60
sg61
g62
sg63
g64
sg65
F1.5
sg66
g67
sg68
I0
sg69
F90.0
sg70
g71
sg73
I8
sg74
F270.0
sg75
g76
sg81
F0.5
sg82
I8
sg83
F5.0
sg84
F0.0
sg85
I0
sg86
F0.65
sa(dp835
g4
F0.03
sg5
I63
sg6
g7
sg8
g9
sg12
I0
sg13
I55
sg14
F20.0
sg15
I2
sg16
F0.5
sg17
F0.15
sg18
F0.15
sg19
I0
sg20
g21
sg22
I1
sg23
g24
sg27
g28
sg29
F271.93984508514404
sg30
F0.945
sg31
I3
sg32
F0.2
sg33
I15
sg34
g35
sg36
F1.0
sg37
I75
sg38
I8
sg39
F0.75
sg40
g41
sg49
(lp836
sg51
g54
sg55
F0.5
sg56
I128
sg57
g58
sg59
g60
sg61
g62
sg63
g64
sg65
F1.5
sg66
g67
sg68
I0
sg69
F90.0
sg70
g71
sg73
I8
sg74
F270.0
sg75
g76
sg81
F0.5
sg82
I8
sg83
F5.0
sg84
F0.0
sg85
I0
sg86
F0.65
sa(dp837
g4
F0.03
sg5
I63
sg6
g7
sg8
g9
sg12
I0
sg13
I55
sg14
F20.0
sg15
I2
sg16
F0.5
sg17
F0.15
sg18
F0.15
sg19
I0
sg20
g21
sg22
I1
sg23
g24
sg27
g28
sg29
F272.8855290412903
sg30
F0.945
sg31
I3
sg32
F0.2
sg33
I15
sg34
g35
sg36
F1.0
sg37
I75
sg38
I8
sg39
F0.75
sg40
g41
sg49
(lp838
sg51
g54
sg55
F0.5
sg56
I128
sg57
g58
sg59
g60
sg61
g62
sg63
g64
sg65
F1.5
sg66
g67
sg68
I0
sg69
F90.0
sg70
g71
sg73
I8
sg74
F270.0
sg75
g76
sg81
F0.5
sg82
I8
sg83
F5.0
sg84
F0.0
sg85
I0
sg86
F0.65
sa(dp839
g4
F0.03
sg5
I63
sg6
g7
sg8
g9
sg12
I0
sg13
I55
sg14
F20.0
sg15
I2
sg16
F0.5
sg17
F0.15
sg18
F0.15
sg19
I0
sg20
g21
sg22
I1
sg23
g24
sg27
g28
sg29
F273.82917404174805
sg30
F0.945
sg31
I3
sg32
F0.2
sg33
I15
sg34
g35
sg36
F1.0
sg37
I75
sg38
I8
sg39
F0.75
sg40
g41
sg49
(lp840
sg51
g54
sg55
F0.5
sg56
I128
sg57
g58
sg59
g60
sg61
g62
sg63
g64
sg65
F1.5
sg66
g67
sg68
I0
sg69
F90.0
sg70
g71
sg73
I8
sg74
F270.0
sg75
g76
sg81
F0.5
sg82
I8
sg83
F5.0
sg84
F0.0
sg85
I0
sg86
F0.65
sa(dp841
g4
F0.03
sg5
I63
sg6
g7
sg8
g9
sg12
I0
sg13
I55
sg14
F20.0
sg15
I2
sg16
F0.5
sg17
F0.15
sg18
F0.15
sg19
I0
sg20
g21
sg22
I1
sg23
g24
sg27
g28
sg29
F274.78003692626953
sg30
F0.945
sg31
I3
sg32
F0.2
sg33
I15
sg34
g35
sg36
F1.0
sg37
I75
sg38
I8
sg39
F0.75
sg40
g41
sg49
g128
(g129
(I0
tp842
g10
tp843
Rp844
(I1
(I6
tp845
g137
I00
S'\x00\x00\x00\x00\x00\xf0n@\x00\x00\x00\x00\x00\x00\xf0\xbf\xe0\xf5z1\x12\xd3\xa1?\x00\x00\x00\x00\x00\x00\xf0?\x00\x00\x00\x00\x00\x00\x00\x00\x00\x00\x00\x00\x00\x00\x00\x00'
p846
tp847
bsg51
g54
sg55
F0.5
sg56
I128
sg57
g58
sg59
g60
sg61
g62
sg63
g64
sg65
F1.5
sg66
g67
sg68
I0
sg69
F90.0
sg70
g71
sg73
I8
sg74
F270.0
sg75
g76
sg81
F0.5
sg82
I8
sg83
F5.0
sg84
F0.0
sg85
I0
sg86
F0.65
sa(dp848
g4
F0.03
sg5
I63
sg6
g7
sg8
g9
sg12
I0
sg13
I55
sg14
F20.0
sg15
I2
sg16
F0.5
sg17
F0.15
sg18
F0.15
sg19
I0
sg20
g21
sg22
I1
sg23
g24
sg27
g28
sg29
F275.719575881958
sg30
F0.945
sg31
I3
sg32
F0.2
sg33
I15
sg34
g35
sg36
F1.0
sg37
I75
sg38
I8
sg39
F0.75
sg40
g41
sg49
(lp849
sg51
g54
sg55
F0.5
sg56
I128
sg57
g58
sg59
g60
sg61
g62
sg63
g64
sg65
F1.5
sg66
g67
sg68
I0
sg69
F90.0
sg70
g71
sg73
I8
sg74
F270.0
sg75
g76
sg81
F0.5
sg82
I8
sg83
F5.0
sg84
F0.0
sg85
I0
sg86
F0.65
sa(dp850
g4
F0.03
sg5
I63
sg6
g7
sg8
g9
sg12
I0
sg13
I55
sg14
F20.0
sg15
I2
sg16
F0.5
sg17
F0.15
sg18
F0.15
sg19
I0
sg20
g21
sg22
I1
sg23
g24
sg27
g28
sg29
F276.6681749820709
sg30
F0.945
sg31
I3
sg32
F0.2
sg33
I15
sg34
g35
sg36
F1.0
sg37
I75
sg38
I8
sg39
F0.75
sg40
g41
sg49
g128
(g129
(I0
tp851
g10
tp852
Rp853
(I1
(I6
tp854
g137
I00
S'\x00\x00\x00\x00\x00\xe0`@\x00\x00\x00\x00\x00\x00\xf0\xbf\x88\x86a>51\xc7?\xb0\xaa\xa5\x0e\xac\x19\xe7?\x00\x00\x00\x00\x00\x00\x00\x00\x00\x00\x00\x00\x00\x00\x00\x00'
p855
tp856
bsg51
g54
sg55
F0.5
sg56
I128
sg57
g58
sg59
g60
sg61
g62
sg63
g64
sg65
F1.5
sg66
g67
sg68
I0
sg69
F90.0
sg70
g71
sg73
I8
sg74
F270.0
sg75
g76
sg81
F0.5
sg82
I8
sg83
F5.0
sg84
F0.0
sg85
I0
sg86
F0.65
sa(dp857
g4
F0.03
sg5
I63
sg6
g7
sg8
g9
sg12
I0
sg13
I55
sg14
F20.0
sg15
I2
sg16
F0.5
sg17
F0.15
sg18
F0.15
sg19
I0
sg20
g21
sg22
I1
sg23
g24
sg27
g28
sg29
F277.6087429523468
sg30
F0.945
sg31
I3
sg32
F0.2
sg33
I15
sg34
g35
sg36
F1.0
sg37
I75
sg38
I8
sg39
F0.75
sg40
g41
sg49
(lp858
sg51
g54
sg55
F0.5
sg56
I128
sg57
g58
sg59
g60
sg61
g62
sg63
g64
sg65
F1.5
sg66
g67
sg68
I0
sg69
F90.0
sg70
g71
sg73
I8
sg74
F270.0
sg75
g76
sg81
F0.5
sg82
I8
sg83
F5.0
sg84
F0.0
sg85
I0
sg86
F0.65
sa(dp859
g4
F0.03
sg5
I63
sg6
g7
sg8
g9
sg12
I0
sg13
I55
sg14
F20.0
sg15
I2
sg16
F0.5
sg17
F0.15
sg18
F0.15
sg19
I0
sg20
g21
sg22
I1
sg23
g24
sg27
g28
sg29
F278.5606129169464
sg30
F0.945
sg31
I3
sg32
F0.2
sg33
I15
sg34
g35
sg36
F1.0
sg37
I75
sg38
I8
sg39
F0.75
sg40
g41
sg49
g128
(g129
(I0
tp860
g10
tp861
Rp862
(I1
(I6
tp863
g137
I00
S'\x00\x00\x00\x00\x00\xe0`@\x00\x00\x00\x00\x00\x00\xf0\xbfP\xbf\x14\xf1\xc8\n\xc9?\xd0\xfd\xf34\xff\xcd\xa9\xbf\x00\x00\x00\x00\x00\x00\x00\x00\x00\x00\x00\x00\x00\x00\x00\x00'
p864
tp865
bsg51
g54
sg55
F0.5
sg56
I128
sg57
g58
sg59
g60
sg61
g62
sg63
g64
sg65
F1.5
sg66
g67
sg68
I0
sg69
F90.0
sg70
g71
sg73
I8
sg74
F270.0
sg75
g76
sg81
F0.5
sg82
I8
sg83
F5.0
sg84
F0.0
sg85
I0
sg86
F0.65
sa(dp866
g4
F0.03
sg5
I63
sg6
g7
sg8
g9
sg12
I0
sg13
I55
sg14
F20.0
sg15
I2
sg16
F0.5
sg17
F0.15
sg18
F0.15
sg19
I0
sg20
g21
sg22
I1
sg23
g24
sg27
g28
sg29
F279.499694108963
sg30
F0.945
sg31
I3
sg32
F0.2
sg33
I15
sg34
g35
sg36
F1.0
sg37
I75
sg38
I8
sg39
F0.75
sg40
g41
sg49
(lp867
sg51
g54
sg55
F0.5
sg56
I128
sg57
g58
sg59
g60
sg61
g62
sg63
g64
sg65
F1.5
sg66
g67
sg68
I0
sg69
F90.0
sg70
g71
sg73
I8
sg74
F270.0
sg75
g76
sg81
F0.5
sg82
I8
sg83
F5.0
sg84
F0.0
sg85
I0
sg86
F0.65
sa(dp868
g4
F0.03
sg5
I63
sg6
g7
sg8
g9
sg12
I0
sg13
I55
sg14
F20.0
sg15
I2
sg16
F0.5
sg17
F0.15
sg18
F0.15
sg19
I0
sg20
g21
sg22
I1
sg23
g24
sg27
g28
sg29
F280.44416189193726
sg30
F0.945
sg31
I3
sg32
F0.2
sg33
I15
sg34
g35
sg36
F1.0
sg37
I75
sg38
I8
sg39
F0.75
sg40
g41
sg49
(lp869
sg51
g54
sg55
F0.5
sg56
I128
sg57
g58
sg59
g60
sg61
g62
sg63
g64
sg65
F1.5
sg66
g67
sg68
I0
sg69
F90.0
sg70
g71
sg73
I8
sg74
F270.0
sg75
g76
sg81
F0.5
sg82
I8
sg83
F5.0
sg84
F0.0
sg85
I0
sg86
F0.65
sa(dp870
g4
F0.03
sg5
I63
sg6
g7
sg8
g9
sg12
I0
sg13
I55
sg14
F20.0
sg15
I2
sg16
F0.5
sg17
F0.15
sg18
F0.15
sg19
I0
sg20
g21
sg22
I1
sg23
g24
sg27
g28
sg29
F281.38900804519653
sg30
F0.945
sg31
I3
sg32
F0.2
sg33
I15
sg34
g35
sg36
F1.0
sg37
I75
sg38
I8
sg39
F0.75
sg40
g41
sg49
(lp871
sg51
g54
sg55
F0.5
sg56
I128
sg57
g58
sg59
g60
sg61
g62
sg63
g64
sg65
F1.5
sg66
g67
sg68
I0
sg69
F90.0
sg70
g71
sg73
I8
sg74
F270.0
sg75
g76
sg81
F0.5
sg82
I8
sg83
F5.0
sg84
F0.0
sg85
I0
sg86
F0.65
sa(dp872
g4
F0.03
sg5
I63
sg6
g7
sg8
g9
sg12
I0
sg13
I55
sg14
F20.0
sg15
I2
sg16
F0.5
sg17
F0.15
sg18
F0.15
sg19
I0
sg20
g21
sg22
I1
sg23
g24
sg27
g28
sg29
F282.3335189819336
sg30
F0.945
sg31
I3
sg32
F0.2
sg33
I15
sg34
g35
sg36
F1.0
sg37
I75
sg38
I8
sg39
F0.75
sg40
g41
sg49
(lp873
sg51
g54
sg55
F0.5
sg56
I128
sg57
g58
sg59
g60
sg61
g62
sg63
g64
sg65
F1.5
sg66
g67
sg68
I0
sg69
F90.0
sg70
g71
sg73
I8
sg74
F270.0
sg75
g76
sg81
F0.5
sg82
I8
sg83
F5.0
sg84
F0.0
sg85
I0
sg86
F0.65
sa(dp874
g4
F0.03
sg5
I63
sg6
g7
sg8
g9
sg12
I0
sg13
I55
sg14
F20.0
sg15
I2
sg16
F0.5
sg17
F0.15
sg18
F0.15
sg19
I0
sg20
g21
sg22
I1
sg23
g24
sg27
g28
sg29
F283.28454089164734
sg30
F0.945
sg31
I3
sg32
F0.2
sg33
I15
sg34
g35
sg36
F1.0
sg37
I75
sg38
I8
sg39
F0.75
sg40
g41
sg49
(lp875
sg51
g54
sg55
F0.5
sg56
I128
sg57
g58
sg59
g60
sg61
g62
sg63
g64
sg65
F1.5
sg66
g67
sg68
I0
sg69
F90.0
sg70
g71
sg73
I8
sg74
F270.0
sg75
g76
sg81
F0.5
sg82
I8
sg83
F5.0
sg84
F0.0
sg85
I0
sg86
F0.65
sa(dp876
g4
F0.03
sg5
I63
sg6
g7
sg8
g9
sg12
I0
sg13
I55
sg14
F20.0
sg15
I2
sg16
F0.5
sg17
F0.15
sg18
F0.15
sg19
I0
sg20
g21
sg22
I1
sg23
g24
sg27
g28
sg29
F284.223886013031
sg30
F0.945
sg31
I3
sg32
F0.2
sg33
I15
sg34
g35
sg36
F1.0
sg37
I75
sg38
I8
sg39
F0.75
sg40
g41
sg49
(lp877
sg51
g54
sg55
F0.5
sg56
I128
sg57
g58
sg59
g60
sg61
g62
sg63
g64
sg65
F1.5
sg66
g67
sg68
I0
sg69
F90.0
sg70
g71
sg73
I8
sg74
F270.0
sg75
g76
sg81
F0.5
sg82
I8
sg83
F5.0
sg84
F0.0
sg85
I0
sg86
F0.65
sa(dp878
g4
F0.03
sg5
I63
sg6
g7
sg8
g9
sg12
I0
sg13
I55
sg14
F20.0
sg15
I2
sg16
F0.5
sg17
F0.15
sg18
F0.15
sg19
I0
sg20
g21
sg22
I1
sg23
g24
sg27
g28
sg29
F285.1686460971832
sg30
F0.945
sg31
I3
sg32
F0.2
sg33
I15
sg34
g35
sg36
F1.0
sg37
I75
sg38
I8
sg39
F0.75
sg40
g41
sg49
(lp879
sg51
g54
sg55
F0.5
sg56
I128
sg57
g58
sg59
g60
sg61
g62
sg63
g64
sg65
F1.5
sg66
g67
sg68
I0
sg69
F90.0
sg70
g71
sg73
I8
sg74
F270.0
sg75
g76
sg81
F0.5
sg82
I8
sg83
F5.0
sg84
F0.0
sg85
I0
sg86
F0.65
sa(dp880
g4
F0.03
sg5
I63
sg6
g7
sg8
g9
sg12
I0
sg13
I55
sg14
F20.0
sg15
I2
sg16
F0.5
sg17
F0.15
sg18
F0.15
sg19
I0
sg20
g21
sg22
I1
sg23
g24
sg27
g28
sg29
F286.1180078983307
sg30
F0.945
sg31
I3
sg32
F0.2
sg33
I15
sg34
g35
sg36
F1.0
sg37
I75
sg38
I8
sg39
F0.75
sg40
g41
sg49
g128
(g129
(I0
tp881
g10
tp882
Rp883
(I1
(I6
tp884
g137
I00
S'\x00\x00\x00\x00\x00\x80f@\xac\xbbn\xc9\xffF\xe8?\x02\x07\x8d\xd9\x12\xe8\xd9\xbf\xdcP\xaf\x11T\x07\xe8\xbf\x00\x00\x00\x00\x00\x00\x00\x00\x00\x00\x00\x00\x00\x00\x00\x00'
p885
tp886
bsg51
g54
sg55
F0.5
sg56
I128
sg57
g58
sg59
g60
sg61
g62
sg63
g64
sg65
F1.5
sg66
g67
sg68
I0
sg69
F90.0
sg70
g71
sg73
I8
sg74
F270.0
sg75
g76
sg81
F0.5
sg82
I8
sg83
F5.0
sg84
F0.0
sg85
I0
sg86
F0.65
sa(dp887
g4
F0.03
sg5
I63
sg6
g7
sg8
g9
sg12
I0
sg13
I55
sg14
F20.0
sg15
I2
sg16
F0.5
sg17
F0.15
sg18
F0.15
sg19
I0
sg20
g21
sg22
I1
sg23
g24
sg27
g28
sg29
F287.0578100681305
sg30
F0.945
sg31
I3
sg32
F0.2
sg33
I15
sg34
g35
sg36
F1.0
sg37
I75
sg38
I8
sg39
F0.75
sg40
g41
sg49
(lp888
sg51
g54
sg55
F0.5
sg56
I128
sg57
g58
sg59
g60
sg61
g62
sg63
g64
sg65
F1.5
sg66
g67
sg68
I0
sg69
F90.0
sg70
g71
sg73
I8
sg74
F270.0
sg75
g76
sg81
F0.5
sg82
I8
sg83
F5.0
sg84
F0.0
sg85
I0
sg86
F0.65
sa(dp889
g4
F0.03
sg5
I63
sg6
g7
sg8
g9
sg12
I0
sg13
I55
sg14
F20.0
sg15
I2
sg16
F0.5
sg17
F0.15
sg18
F0.15
sg19
I0
sg20
g21
sg22
I1
sg23
g24
sg27
g28
sg29
F288.0039179325104
sg30
F0.945
sg31
I3
sg32
F0.2
sg33
I15
sg34
g35
sg36
F1.0
sg37
I75
sg38
I8
sg39
F0.75
sg40
g41
sg49
(lp890
sg51
g54
sg55
F0.5
sg56
I128
sg57
g58
sg59
g60
sg61
g62
sg63
g64
sg65
F1.5
sg66
g67
sg68
I0
sg69
F90.0
sg70
g71
sg73
I8
sg74
F270.0
sg75
g76
sg81
F0.5
sg82
I8
sg83
F5.0
sg84
F0.0
sg85
I0
sg86
F0.65
sa(dp891
g4
F0.03
sg5
I63
sg6
g7
sg8
g9
sg12
I0
sg13
I55
sg14
F20.0
sg15
I2
sg16
F0.5
sg17
F0.15
sg18
F0.15
sg19
I0
sg20
g21
sg22
I1
sg23
g24
sg27
g28
sg29
F288.94776010513306
sg30
F0.945
sg31
I3
sg32
F0.2
sg33
I15
sg34
g35
sg36
F1.0
sg37
I75
sg38
I8
sg39
F0.75
sg40
g41
sg49
(lp892
sg51
g54
sg55
F0.5
sg56
I128
sg57
g58
sg59
g60
sg61
g62
sg63
g64
sg65
F1.5
sg66
g67
sg68
I0
sg69
F90.0
sg70
g71
sg73
I8
sg74
F270.0
sg75
g76
sg81
F0.5
sg82
I8
sg83
F5.0
sg84
F0.0
sg85
I0
sg86
F0.65
sa(dp893
g4
F0.03
sg5
I63
sg6
g7
sg8
g9
sg12
I0
sg13
I55
sg14
F20.0
sg15
I2
sg16
F0.5
sg17
F0.15
sg18
F0.15
sg19
I0
sg20
g21
sg22
I1
sg23
g24
sg27
g28
sg29
F289.8962368965149
sg30
F0.945
sg31
I3
sg32
F0.2
sg33
I15
sg34
g35
sg36
F1.0
sg37
I75
sg38
I8
sg39
F0.75
sg40
g41
sg49
g128
(g129
(I0
tp894
g10
tp895
Rp896
(I1
(I6
tp897
g137
I00
S'\x00\x00\x00\x00\x00\x80f@&\x95\xa5\xadY)\xe7\xbf@1a0\xd2\xbc\xc0?2\x05b\xe8&\x1a\xec\xbf\x00\x00\x00\x00\x00\x00\x00\x00\x00\x00\x00\x00\x00\x00\x00\x00'
p898
tp899
bsg51
g54
sg55
F0.5
sg56
I128
sg57
g58
sg59
g60
sg61
g62
sg63
g64
sg65
F1.5
sg66
g67
sg68
I0
sg69
F90.0
sg70
g71
sg73
I8
sg74
F270.0
sg75
g76
sg81
F0.5
sg82
I8
sg83
F5.0
sg84
F0.0
sg85
I0
sg86
F0.65
sa(dp900
g4
F0.03
sg5
I63
sg6
g7
sg8
g9
sg12
I0
sg13
I55
sg14
F20.0
sg15
I2
sg16
F0.5
sg17
F0.15
sg18
F0.15
sg19
I0
sg20
g21
sg22
I1
sg23
g24
sg27
g28
sg29
F290.83614897727966
sg30
F0.945
sg31
I3
sg32
F0.2
sg33
I15
sg34
g35
sg36
F1.0
sg37
I75
sg38
I8
sg39
F0.75
sg40
g41
sg49
(lp901
sg51
g54
sg55
F0.5
sg56
I128
sg57
g58
sg59
g60
sg61
g62
sg63
g64
sg65
F1.5
sg66
g67
sg68
I0
sg69
F90.0
sg70
g71
sg73
I8
sg74
F270.0
sg75
g76
sg81
F0.5
sg82
I8
sg83
F5.0
sg84
F0.0
sg85
I0
sg86
F0.65
sa(dp902
g4
F0.03
sg5
I63
sg6
g7
sg8
g9
sg12
I0
sg13
I55
sg14
F20.0
sg15
I2
sg16
F0.5
sg17
F0.15
sg18
F0.15
sg19
I0
sg20
g21
sg22
I1
sg23
g24
sg27
g28
sg29
F291.78698801994324
sg30
F0.945
sg31
I3
sg32
F0.2
sg33
I15
sg34
g35
sg36
F1.0
sg37
I75
sg38
I8
sg39
F0.75
sg40
g41
sg49
g128
(g129
(I0
tp903
g10
tp904
Rp905
(I1
(I6
tp906
g137
I00
S'\x00\x00\x00\x00\x00\x80V@PMx\x12+\x80\xc8?\xd0\x88\xefwA\xdd\xab\xbf\x00\x00\x00\x00\x00\x00\xf0\xbf\x00\x00\x00\x00\x00\x00\x00\x00\x00\x00\x00\x00\x00\x00\x00\x00'
p907
tp908
bsg51
g54
sg55
F0.5
sg56
I128
sg57
g58
sg59
g60
sg61
g62
sg63
g64
sg65
F1.5
sg66
g67
sg68
I0
sg69
F90.0
sg70
g71
sg73
I8
sg74
F270.0
sg75
g76
sg81
F0.5
sg82
I8
sg83
F5.0
sg84
F0.0
sg85
I0
sg86
F0.65
sa(dp909
g4
F0.03
sg5
I63
sg6
g7
sg8
g9
sg12
I0
sg13
I55
sg14
F20.0
sg15
I2
sg16
F0.5
sg17
F0.15
sg18
F0.15
sg19
I0
sg20
g21
sg22
I1
sg23
g24
sg27
g28
sg29
F292.72707200050354
sg30
F0.945
sg31
I3
sg32
F0.2
sg33
I15
sg34
g35
sg36
F1.0
sg37
I75
sg38
I8
sg39
F0.75
sg40
g41
sg49
(lp910
sg51
g54
sg55
F0.5
sg56
I128
sg57
g58
sg59
g60
sg61
g62
sg63
g64
sg65
F1.5
sg66
g67
sg68
I0
sg69
F90.0
sg70
g71
sg73
I8
sg74
F270.0
sg75
g76
sg81
F0.5
sg82
I8
sg83
F5.0
sg84
F0.0
sg85
I0
sg86
F0.65
sa(dp911
g4
F0.03
sg5
I63
sg6
g7
sg8
g9
sg12
I0
sg13
I55
sg14
F20.0
sg15
I2
sg16
F0.5
sg17
F0.15
sg18
F0.15
sg19
I0
sg20
g21
sg22
I1
sg23
g24
sg27
g28
sg29
F293.6756730079651
sg30
F0.945
sg31
I3
sg32
F0.2
sg33
I15
sg34
g35
sg36
F1.0
sg37
I75
sg38
I8
sg39
F0.75
sg40
g41
sg49
g128
(g129
(I0
tp912
g10
tp913
Rp914
(I1
(I6
tp915
g137
I00
S'\x00\x00\x00\x00\x00Pi@(\xfd\x95\xfe\x02;\xd4?N\x98v\x8a\xdb\xe8\xd3\xbfl\xcd\x82\xdd=\x90\xe7?\x00\x00\x00\x00\x00\x00\x00\x00\x00\x00\x00\x00\x00\x00\x00\x00'
p916
tp917
bsg51
g54
sg55
F0.5
sg56
I128
sg57
g58
sg59
g60
sg61
g62
sg63
g64
sg65
F1.5
sg66
g67
sg68
I0
sg69
F90.0
sg70
g71
sg73
I8
sg74
F270.0
sg75
g76
sg81
F0.5
sg82
I8
sg83
F5.0
sg84
F0.0
sg85
I0
sg86
F0.65
sa(dp918
g4
F0.03
sg5
I63
sg6
g7
sg8
g9
sg12
I0
sg13
I55
sg14
F20.0
sg15
I2
sg16
F0.5
sg17
F0.15
sg18
F0.15
sg19
I0
sg20
g21
sg22
I1
sg23
g24
sg27
g28
sg29
F294.61593198776245
sg30
F0.945
sg31
I3
sg32
F0.2
sg33
I15
sg34
g35
sg36
F1.0
sg37
I75
sg38
I8
sg39
F0.75
sg40
g41
sg49
(lp919
sg51
g54
sg55
F0.5
sg56
I128
sg57
g58
sg59
g60
sg61
g62
sg63
g64
sg65
F1.5
sg66
g67
sg68
I0
sg69
F90.0
sg70
g71
sg73
I8
sg74
F270.0
sg75
g76
sg81
F0.5
sg82
I8
sg83
F5.0
sg84
F0.0
sg85
I0
sg86
F0.65
sa(dp920
g4
F0.03
sg5
I63
sg6
g7
sg8
g9
sg12
I0
sg13
I55
sg14
F20.0
sg15
I2
sg16
F0.5
sg17
F0.15
sg18
F0.15
sg19
I0
sg20
g21
sg22
I1
sg23
g24
sg27
g28
sg29
F295.5658829212189
sg30
F0.945
sg31
I3
sg32
F0.2
sg33
I15
sg34
g35
sg36
F1.0
sg37
I75
sg38
I8
sg39
F0.75
sg40
g41
sg49
g128
(g129
(I0
tp921
g10
tp922
Rp923
(I1
(I6
tp924
g137
I00
S'\x00\x00\x00\x00\x00 l@PMx\x12+\x80\xc8?\xd0\x88\xefwA\xdd\xab\xbf\x00\x00\x00\x00\x00\x00\xf0\xbf\x00\x00\x00\x00\x00\x00\x00\x00\x00\x00\x00\x00\x00\x00\x00\x00'
p925
tp926
bsg51
g54
sg55
F0.5
sg56
I128
sg57
g58
sg59
g60
sg61
g62
sg63
g64
sg65
F1.5
sg66
g67
sg68
I0
sg69
F90.0
sg70
g71
sg73
I8
sg74
F270.0
sg75
g76
sg81
F0.5
sg82
I8
sg83
F5.0
sg84
F0.0
sg85
I0
sg86
F0.65
sa(dp927
g4
F0.03
sg5
I63
sg6
g7
sg8
g9
sg12
I0
sg13
I55
sg14
F20.0
sg15
I2
sg16
F0.5
sg17
F0.15
sg18
F0.15
sg19
I0
sg20
g21
sg22
I1
sg23
g24
sg27
g28
sg29
F296.5057270526886
sg30
F0.945
sg31
I3
sg32
F0.2
sg33
I15
sg34
g35
sg36
F1.0
sg37
I75
sg38
I8
sg39
F0.75
sg40
g41
sg49
(lp928
sg51
g54
sg55
F0.5
sg56
I128
sg57
g58
sg59
g60
sg61
g62
sg63
g64
sg65
F1.5
sg66
g67
sg68
I0
sg69
F90.0
sg70
g71
sg73
I8
sg74
F270.0
sg75
g76
sg81
F0.5
sg82
I8
sg83
F5.0
sg84
F0.0
sg85
I0
sg86
F0.65
sa(dp929
g4
F0.03
sg5
I63
sg6
g7
sg8
g9
sg12
I0
sg13
I55
sg14
F20.0
sg15
I2
sg16
F0.5
sg17
F0.15
sg18
F0.15
sg19
I0
sg20
g21
sg22
I1
sg23
g24
sg27
g28
sg29
F297.44989705085754
sg30
F0.945
sg31
I3
sg32
F0.2
sg33
I15
sg34
g35
sg36
F1.0
sg37
I75
sg38
I8
sg39
F0.75
sg40
g41
sg49
(lp930
sg51
g54
sg55
F0.5
sg56
I128
sg57
g58
sg59
g60
sg61
g62
sg63
g64
sg65
F1.5
sg66
g67
sg68
I0
sg69
F90.0
sg70
g71
sg73
I8
sg74
F270.0
sg75
g76
sg81
F0.5
sg82
I8
sg83
F5.0
sg84
F0.0
sg85
I0
sg86
F0.65
sa(dp931
g4
F0.03
sg5
I63
sg6
g7
sg8
g9
sg12
I0
sg13
I55
sg14
F20.0
sg15
I2
sg16
F0.5
sg17
F0.15
sg18
F0.15
sg19
I0
sg20
g21
sg22
I1
sg23
g24
sg27
g28
sg29
F298.3951919078827
sg30
F0.945
sg31
I3
sg32
F0.2
sg33
I15
sg34
g35
sg36
F1.0
sg37
I75
sg38
I8
sg39
F0.75
sg40
g41
sg49
(lp932
sg51
g54
sg55
F0.5
sg56
I128
sg57
g58
sg59
g60
sg61
g62
sg63
g64
sg65
F1.5
sg66
g67
sg68
I0
sg69
F90.0
sg70
g71
sg73
I8
sg74
F270.0
sg75
g76
sg81
F0.5
sg82
I8
sg83
F5.0
sg84
F0.0
sg85
I0
sg86
F0.65
sa(dp933
g4
F0.03
sg5
I63
sg6
g7
sg8
g9
sg12
I0
sg13
I55
sg14
F20.0
sg15
I2
sg16
F0.5
sg17
F0.15
sg18
F0.15
sg19
I0
sg20
g21
sg22
I1
sg23
g24
sg27
g28
sg29
F299.34520292282104
sg30
F0.945
sg31
I3
sg32
F0.2
sg33
I15
sg34
g35
sg36
F1.0
sg37
I75
sg38
I8
sg39
F0.75
sg40
g41
sg49
g128
(g129
(I0
tp934
g10
tp935
Rp936
(I1
(I6
tp937
g137
I00
S'\x00\x00\x00\x00\x00\x80f@PMx\x12+\x80\xc8?\xd0\x88\xefwA\xdd\xab\xbf\x00\x00\x00\x00\x00\x00\xf0\xbf\x00\x00\x00\x00\x00\x00\x00\x00\x00\x00\x00\x00\x00\x00\x00\x00'
p938
tp939
bsg51
g54
sg55
F0.5
sg56
I128
sg57
g58
sg59
g60
sg61
g62
sg63
g64
sg65
F1.5
sg66
g67
sg68
I0
sg69
F90.0
sg70
g71
sg73
I8
sg74
F270.0
sg75
g76
sg81
F0.5
sg82
I8
sg83
F5.0
sg84
F0.0
sg85
I0
sg86
F0.65
sa(dp940
g4
F0.03
sg5
I63
sg6
g7
sg8
g9
sg12
I0
sg13
I55
sg14
F20.0
sg15
I2
sg16
F0.5
sg17
F0.15
sg18
F0.15
sg19
I0
sg20
g21
sg22
I1
sg23
g24
sg27
g28
sg29
F300.28459191322327
sg30
F0.945
sg31
I3
sg32
F0.2
sg33
I15
sg34
g35
sg36
F1.0
sg37
I75
sg38
I8
sg39
F0.75
sg40
g41
sg49
(lp941
sg51
g54
sg55
F0.5
sg56
I128
sg57
g58
sg59
g60
sg61
g62
sg63
g64
sg65
F1.5
sg66
g67
sg68
I0
sg69
F90.0
sg70
g71
sg73
I8
sg74
F270.0
sg75
g76
sg81
F0.5
sg82
I8
sg83
F5.0
sg84
F0.0
sg85
I0
sg86
F0.65
sa(dp942
g4
F0.03
sg5
I63
sg6
g7
sg8
g9
sg12
I0
sg13
I55
sg14
F20.0
sg15
I2
sg16
F0.5
sg17
F0.15
sg18
F0.15
sg19
I0
sg20
g21
sg22
I1
sg23
g24
sg27
g28
sg29
F301.2368760108948
sg30
F0.945
sg31
I3
sg32
F0.2
sg33
I15
sg34
g35
sg36
F1.0
sg37
I75
sg38
I8
sg39
F0.75
sg40
g41
sg49
g128
(g129
(I0
tp943
g10
tp944
Rp945
(I1
(I6
tp946
g137
I00
S'\x00\x00\x00\x00\x00 \\@\x00\x00\x00\x00\x00\x00\xf0\xbf\xe0\xf5z1\x12\xd3\xa1?\x00\x00\x00\x00\x00\x00\xf0?\x00\x00\x00\x00\x00\x00\x00\x00\x00\x00\x00\x00\x00\x00\x00\x00'
p947
tp948
bsg51
g54
sg55
F0.5
sg56
I128
sg57
g58
sg59
g60
sg61
g62
sg63
g64
sg65
F1.5
sg66
g67
sg68
I0
sg69
F90.0
sg70
g71
sg73
I8
sg74
F270.0
sg75
g76
sg81
F0.5
sg82
I8
sg83
F5.0
sg84
F0.0
sg85
I0
sg86
F0.65
sa(dp949
g4
F0.03
sg5
I63
sg6
g7
sg8
g9
sg12
I0
sg13
I55
sg14
F20.0
sg15
I2
sg16
F0.5
sg17
F0.15
sg18
F0.15
sg19
I0
sg20
g21
sg22
I1
sg23
g24
sg27
g28
sg29
F302.1751708984375
sg30
F0.945
sg31
I3
sg32
F0.2
sg33
I15
sg34
g35
sg36
F1.0
sg37
I75
sg38
I8
sg39
F0.75
sg40
g41
sg49
(lp950
sg51
g54
sg55
F0.5
sg56
I128
sg57
g58
sg59
g60
sg61
g62
sg63
g64
sg65
F1.5
sg66
g67
sg68
I0
sg69
F90.0
sg70
g71
sg73
I8
sg74
F270.0
sg75
g76
sg81
F0.5
sg82
I8
sg83
F5.0
sg84
F0.0
sg85
I0
sg86
F0.65
sa(dp951
g4
F0.03
sg5
I63
sg6
g7
sg8
g9
sg12
I0
sg13
I55
sg14
F20.0
sg15
I2
sg16
F0.5
sg17
F0.15
sg18
F0.15
sg19
I0
sg20
g21
sg22
I1
sg23
g24
sg27
g28
sg29
F303.11961007118225
sg30
F0.945
sg31
I3
sg32
F0.2
sg33
I15
sg34
g35
sg36
F1.0
sg37
I75
sg38
I8
sg39
F0.75
sg40
g41
sg49
(lp952
sg51
g54
sg55
F0.5
sg56
I128
sg57
g58
sg59
g60
sg61
g62
sg63
g64
sg65
F1.5
sg66
g67
sg68
I0
sg69
F90.0
sg70
g71
sg73
I8
sg74
F270.0
sg75
g76
sg81
F0.5
sg82
I8
sg83
F5.0
sg84
F0.0
sg85
I0
sg86
F0.65
sa(dp953
g4
F0.03
sg5
I63
sg6
g7
sg8
g9
sg12
I0
sg13
I55
sg14
F20.0
sg15
I2
sg16
F0.5
sg17
F0.15
sg18
F0.15
sg19
I0
sg20
g21
sg22
I1
sg23
g24
sg27
g28
sg29
F304.06512999534607
sg30
F0.945
sg31
I3
sg32
F0.2
sg33
I15
sg34
g35
sg36
F1.0
sg37
I75
sg38
I8
sg39
F0.75
sg40
g41
sg49
(lp954
sg51
g54
sg55
F0.5
sg56
I128
sg57
g58
sg59
g60
sg61
g62
sg63
g64
sg65
F1.5
sg66
g67
sg68
I0
sg69
F90.0
sg70
g71
sg73
I8
sg74
F270.0
sg75
g76
sg81
F0.5
sg82
I8
sg83
F5.0
sg84
F0.0
sg85
I0
sg86
F0.65
sa(dp955
g4
F0.03
sg5
I63
sg6
g7
sg8
g9
sg12
I0
sg13
I55
sg14
F20.0
sg15
I2
sg16
F0.5
sg17
F0.15
sg18
F0.15
sg19
I0
sg20
g21
sg22
I1
sg23
g24
sg27
g28
sg29
F305.0098340511322
sg30
F0.945
sg31
I3
sg32
F0.2
sg33
I15
sg34
g35
sg36
F1.0
sg37
I75
sg38
I8
sg39
F0.75
sg40
g41
sg49
(lp956
sg51
g54
sg55
F0.5
sg56
I128
sg57
g58
sg59
g60
sg61
g62
sg63
g64
sg65
F1.5
sg66
g67
sg68
I0
sg69
F90.0
sg70
g71
sg73
I8
sg74
F270.0
sg75
g76
sg81
F0.5
sg82
I8
sg83
F5.0
sg84
F0.0
sg85
I0
sg86
F0.65
sa(dp957
g4
F0.03
sg5
I63
sg6
g7
sg8
g9
sg12
I0
sg13
I55
sg14
F20.0
sg15
I2
sg16
F0.5
sg17
F0.15
sg18
F0.15
sg19
I0
sg20
g21
sg22
I1
sg23
g24
sg27
g28
sg29
F305.9554169178009
sg30
F0.945
sg31
I3
sg32
F0.2
sg33
I15
sg34
g35
sg36
F1.0
sg37
I75
sg38
I8
sg39
F0.75
sg40
g41
sg49
(lp958
sg51
g54
sg55
F0.5
sg56
I128
sg57
g58
sg59
g60
sg61
g62
sg63
g64
sg65
F1.5
sg66
g67
sg68
I0
sg69
F90.0
sg70
g71
sg73
I8
sg74
F270.0
sg75
g76
sg81
F0.5
sg82
I8
sg83
F5.0
sg84
F0.0
sg85
I0
sg86
F0.65
sa(dp959
g4
F0.03
sg5
I63
sg6
g7
sg8
g9
sg12
I0
sg13
I55
sg14
F20.0
sg15
I2
sg16
F0.5
sg17
F0.15
sg18
F0.15
sg19
I0
sg20
g21
sg22
I1
sg23
g24
sg27
g28
sg29
F306.89900493621826
sg30
F0.945
sg31
I3
sg32
F0.2
sg33
I15
sg34
g35
sg36
F1.0
sg37
I75
sg38
I8
sg39
F0.75
sg40
g41
sg49
(lp960
sg51
g54
sg55
F0.5
sg56
I128
sg57
g58
sg59
g60
sg61
g62
sg63
g64
sg65
F1.5
sg66
g67
sg68
I0
sg69
F90.0
sg70
g71
sg73
I8
sg74
F270.0
sg75
g76
sg81
F0.5
sg82
I8
sg83
F5.0
sg84
F0.0
sg85
I0
sg86
F0.65
sa(dp961
g4
F0.03
sg5
I63
sg6
g7
sg8
g9
sg12
I0
sg13
I55
sg14
F20.0
sg15
I2
sg16
F0.5
sg17
F0.15
sg18
F0.15
sg19
I0
sg20
g21
sg22
I1
sg23
g24
sg27
g28
sg29
F307.84434700012207
sg30
F0.945
sg31
I3
sg32
F0.2
sg33
I15
sg34
g35
sg36
F1.0
sg37
I75
sg38
I8
sg39
F0.75
sg40
g41
sg49
(lp962
sg51
g54
sg55
F0.5
sg56
I128
sg57
g58
sg59
g60
sg61
g62
sg63
g64
sg65
F1.5
sg66
g67
sg68
I0
sg69
F90.0
sg70
g71
sg73
I8
sg74
F270.0
sg75
g76
sg81
F0.5
sg82
I8
sg83
F5.0
sg84
F0.0
sg85
I0
sg86
F0.65
sa(dp963
g4
F0.03
sg5
I63
sg6
g7
sg8
g9
sg12
I0
sg13
I55
sg14
F20.0
sg15
I2
sg16
F0.5
sg17
F0.15
sg18
F0.15
sg19
I0
sg20
g21
sg22
I1
sg23
g24
sg27
g28
sg29
F308.7894299030304
sg30
F0.945
sg31
I3
sg32
F0.2
sg33
I15
sg34
g35
sg36
F1.0
sg37
I75
sg38
I8
sg39
F0.75
sg40
g41
sg49
(lp964
sg51
g54
sg55
F0.5
sg56
I128
sg57
g58
sg59
g60
sg61
g62
sg63
g64
sg65
F1.5
sg66
g67
sg68
I0
sg69
F90.0
sg70
g71
sg73
I8
sg74
F270.0
sg75
g76
sg81
F0.5
sg82
I8
sg83
F5.0
sg84
F0.0
sg85
I0
sg86
F0.65
sa(dp965
g4
F0.03
sg5
I63
sg6
g7
sg8
g9
sg12
I0
sg13
I55
sg14
F20.0
sg15
I2
sg16
F0.5
sg17
F0.15
sg18
F0.15
sg19
I0
sg20
g21
sg22
I1
sg23
g24
sg27
g28
sg29
F309.7339189052582
sg30
F0.945
sg31
I3
sg32
F0.2
sg33
I15
sg34
g35
sg36
F1.0
sg37
I75
sg38
I8
sg39
F0.75
sg40
g41
sg49
(lp966
sg51
g54
sg55
F0.5
sg56
I128
sg57
g58
sg59
g60
sg61
g62
sg63
g64
sg65
F1.5
sg66
g67
sg68
I0
sg69
F90.0
sg70
g71
sg73
I8
sg74
F270.0
sg75
g76
sg81
F0.5
sg82
I8
sg83
F5.0
sg84
F0.0
sg85
I0
sg86
F0.65
sa(dp967
g4
F0.03
sg5
I63
sg6
g7
sg8
g9
sg12
I0
sg13
I55
sg14
F20.0
sg15
I2
sg16
F0.5
sg17
F0.15
sg18
F0.15
sg19
I0
sg20
g21
sg22
I1
sg23
g24
sg27
g28
sg29
F310.67845702171326
sg30
F0.945
sg31
I3
sg32
F0.2
sg33
I15
sg34
g35
sg36
F1.0
sg37
I75
sg38
I8
sg39
F0.75
sg40
g41
sg49
(lp968
sg51
g54
sg55
F0.5
sg56
I128
sg57
g58
sg59
g60
sg61
g62
sg63
g64
sg65
F1.5
sg66
g67
sg68
I0
sg69
F90.0
sg70
g71
sg73
I8
sg74
F270.0
sg75
g76
sg81
F0.5
sg82
I8
sg83
F5.0
sg84
F0.0
sg85
I0
sg86
F0.65
sa(dp969
g4
F0.03
sg5
I63
sg6
g7
sg8
g9
sg12
I0
sg13
I55
sg14
F20.0
sg15
I2
sg16
F0.5
sg17
F0.15
sg18
F0.15
sg19
I0
sg20
g21
sg22
I1
sg23
g24
sg27
g28
sg29
F311.6224660873413
sg30
F0.945
sg31
I3
sg32
F0.2
sg33
I15
sg34
g35
sg36
F1.0
sg37
I75
sg38
I8
sg39
F0.75
sg40
g41
sg49
(lp970
sg51
g54
sg55
F0.5
sg56
I128
sg57
g58
sg59
g60
sg61
g62
sg63
g64
sg65
F1.5
sg66
g67
sg68
I0
sg69
F90.0
sg70
g71
sg73
I8
sg74
F270.0
sg75
g76
sg81
F0.5
sg82
I8
sg83
F5.0
sg84
F0.0
sg85
I0
sg86
F0.65
sa(dp971
g4
F0.03
sg5
I63
sg6
g7
sg8
g9
sg12
I0
sg13
I55
sg14
F20.0
sg15
I2
sg16
F0.5
sg17
F0.15
sg18
F0.15
sg19
I0
sg20
g21
sg22
I1
sg23
g24
sg27
g28
sg29
F312.5680410861969
sg30
F0.945
sg31
I3
sg32
F0.2
sg33
I15
sg34
g35
sg36
F1.0
sg37
I75
sg38
I8
sg39
F0.75
sg40
g41
sg49
(lp972
sg51
g54
sg55
F0.5
sg56
I128
sg57
g58
sg59
g60
sg61
g62
sg63
g64
sg65
F1.5
sg66
g67
sg68
I0
sg69
F90.0
sg70
g71
sg73
I8
sg74
F270.0
sg75
g76
sg81
F0.5
sg82
I8
sg83
F5.0
sg84
F0.0
sg85
I0
sg86
F0.65
sa(dp973
g4
F0.03
sg5
I63
sg6
g7
sg8
g9
sg12
I0
sg13
I55
sg14
F20.0
sg15
I2
sg16
F0.5
sg17
F0.15
sg18
F0.15
sg19
I0
sg20
g21
sg22
I1
sg23
g24
sg27
g28
sg29
F313.51263999938965
sg30
F0.945
sg31
I3
sg32
F0.2
sg33
I15
sg34
g35
sg36
F1.0
sg37
I75
sg38
I8
sg39
F0.75
sg40
g41
sg49
(lp974
sg51
g54
sg55
F0.5
sg56
I128
sg57
g58
sg59
g60
sg61
g62
sg63
g64
sg65
F1.5
sg66
g67
sg68
I0
sg69
F90.0
sg70
g71
sg73
I8
sg74
F270.0
sg75
g76
sg81
F0.5
sg82
I8
sg83
F5.0
sg84
F0.0
sg85
I0
sg86
F0.65
sa(dp975
g4
F0.03
sg5
I63
sg6
g7
sg8
g9
sg12
I0
sg13
I55
sg14
F20.0
sg15
I2
sg16
F0.5
sg17
F0.15
sg18
F0.15
sg19
I0
sg20
g21
sg22
I1
sg23
g24
sg27
g28
sg29
F314.4640328884125
sg30
F0.945
sg31
I3
sg32
F0.2
sg33
I15
sg34
g35
sg36
F1.0
sg37
I75
sg38
I8
sg39
F0.75
sg40
g41
sg49
(lp976
sg51
g54
sg55
F0.5
sg56
I128
sg57
g58
sg59
g60
sg61
g62
sg63
g64
sg65
F1.5
sg66
g67
sg68
I0
sg69
F90.0
sg70
g71
sg73
I8
sg74
F270.0
sg75
g76
sg81
F0.5
sg82
I8
sg83
F5.0
sg84
F0.0
sg85
I0
sg86
F0.65
sa(dp977
g4
F0.03
sg5
I63
sg6
g7
sg8
g9
sg12
I0
sg13
I55
sg14
F20.0
sg15
I2
sg16
F0.5
sg17
F0.15
sg18
F0.15
sg19
I0
sg20
g21
sg22
I1
sg23
g24
sg27
g28
sg29
F315.40284609794617
sg30
F0.945
sg31
I3
sg32
F0.2
sg33
I15
sg34
g35
sg36
F1.0
sg37
I75
sg38
I8
sg39
F0.75
sg40
g41
sg49
(lp978
sg51
g54
sg55
F0.5
sg56
I128
sg57
g58
sg59
g60
sg61
g62
sg63
g64
sg65
F1.5
sg66
g67
sg68
I0
sg69
F90.0
sg70
g71
sg73
I8
sg74
F270.0
sg75
g76
sg81
F0.5
sg82
I8
sg83
F5.0
sg84
F0.0
sg85
I0
sg86
F0.65
sa(dp979
g4
F0.03
sg5
I63
sg6
g7
sg8
g9
sg12
I0
sg13
I55
sg14
F20.0
sg15
I2
sg16
F0.5
sg17
F0.15
sg18
F0.15
sg19
I0
sg20
g21
sg22
I1
sg23
g24
sg27
g28
sg29
F316.34760999679565
sg30
F0.945
sg31
I3
sg32
F0.2
sg33
I15
sg34
g35
sg36
F1.0
sg37
I75
sg38
I8
sg39
F0.75
sg40
g41
sg49
(lp980
sg51
g54
sg55
F0.5
sg56
I128
sg57
g58
sg59
g60
sg61
g62
sg63
g64
sg65
F1.5
sg66
g67
sg68
I0
sg69
F90.0
sg70
g71
sg73
I8
sg74
F270.0
sg75
g76
sg81
F0.5
sg82
I8
sg83
F5.0
sg84
F0.0
sg85
I0
sg86
F0.65
sa(dp981
g4
F0.03
sg5
I63
sg6
g7
sg8
g9
sg12
I0
sg13
I55
sg14
F20.0
sg15
I2
sg16
F0.5
sg17
F0.15
sg18
F0.15
sg19
I0
sg20
g21
sg22
I1
sg23
g24
sg27
g28
sg29
F317.2922959327698
sg30
F0.945
sg31
I3
sg32
F0.2
sg33
I15
sg34
g35
sg36
F1.0
sg37
I75
sg38
I8
sg39
F0.75
sg40
g41
sg49
(lp982
sg51
g54
sg55
F0.5
sg56
I128
sg57
g58
sg59
g60
sg61
g62
sg63
g64
sg65
F1.5
sg66
g67
sg68
I0
sg69
F90.0
sg70
g71
sg73
I8
sg74
F270.0
sg75
g76
sg81
F0.5
sg82
I8
sg83
F5.0
sg84
F0.0
sg85
I0
sg86
F0.65
sa(dp983
g4
F0.03
sg5
I63
sg6
g7
sg8
g9
sg12
I0
sg13
I55
sg14
F20.0
sg15
I2
sg16
F0.5
sg17
F0.15
sg18
F0.15
sg19
I0
sg20
g21
sg22
I1
sg23
g24
sg27
g28
sg29
F318.2375159263611
sg30
F0.945
sg31
I3
sg32
F0.2
sg33
I15
sg34
g35
sg36
F1.0
sg37
I75
sg38
I8
sg39
F0.75
sg40
g41
sg49
(lp984
sg51
g54
sg55
F0.5
sg56
I128
sg57
g58
sg59
g60
sg61
g62
sg63
g64
sg65
F1.5
sg66
g67
sg68
I0
sg69
F90.0
sg70
g71
sg73
I8
sg74
F270.0
sg75
g76
sg81
F0.5
sg82
I8
sg83
F5.0
sg84
F0.0
sg85
I0
sg86
F0.65
sasS'eventArray'
p985
(lp986
(lp987
S'trial 0 started at 48.9866740704'
p988
aa(lp989
S'trial 1 started at 49.9000849724'
p990
aa(lp991
S'trial 2 started at 50.8595678806'
p992
aa(lp993
S'trial 3 started at 51.7907838821'
p994
aa(lp995
S'trial 4 started at 52.7322659492'
p996
aa(lp997
S'trial 5 started at 53.6804940701'
p998
aa(lp999
S'trial 6 started at 54.6257081032'
p1000
aa(lp1001
S'trial 7 started at 55.5694849491'
p1002
aS'staircase updated from 0.700000 to 0.700000 after response 1 [key y, dir 1] at 55.989122'
p1003
aS'trial 7 key: y at time: 55.9891619682'
p1004
aS'trial 7 event y at 55.9891750813'
p1005
aa(lp1006
S'trial 8 started at 56.5153770447'
p1007
aa(lp1008
S'trial 9 started at 57.4564390182'
p1009
aa(lp1010
S'trial 10 started at 58.4050240517'
p1011
aa(lp1012
S'trial 11 started at 59.3503439426'
p1013
aS'staircase updated from 0.700000 to 0.700000 after response 1 [key y, dir 1] at 59.544353'
p1014
aS'trial 11 key: y at time: 59.5443909168'
p1015
aS'trial 11 event y at 59.5443999767'
p1016
aa(lp1017
S'trial 12 started at 60.2913930416'
p1018
aa(lp1019
S'trial 13 started at 61.241549015'
p1020
aa(lp1021
S'trial 14 started at 62.1813459396'
p1022
aS'staircase updated from 0.700000 to 0.600000 after response 1 [key y, dir 1] at 62.830068'
p1023
aS'trial 14 key: y at time: 62.8301069736'
p1024
aS'trial 14 event y at 62.8301188946'
p1025
aa(lp1026
S'trial 15 started at 63.1258890629'
p1027
aa(lp1028
S'trial 16 started at 64.0716741085'
p1029
aa(lp1030
S'trial 17 started at 65.0153310299'
p1031
aa(lp1032
S'trial 18 started at 65.9641680717'
p1033
aa(lp1034
S'trial 19 started at 66.9080688953'
p1035
aa(lp1036
S'trial 20 started at 67.8501329422'
p1037
aa(lp1038
S'trial 21 started at 68.804336071'
p1039
aa(lp1040
S'trial 22 started at 69.7399160862'
p1041
aS'staircase updated from 0.600000 to 0.600000 after response 1 [key y, dir 1] at 70.295790'
p1042
aS'trial 22 key: y at time: 70.2958300114'
p1043
aS'trial 22 event y at 70.295842886'
p1044
aa(lp1045
S'trial 23 started at 70.6903970242'
p1046
aa(lp1047
S'trial 24 started at 71.632805109'
p1048
aa(lp1049
S'trial 25 started at 72.5776619911'
p1050
aa(lp1051
S'trial 26 started at 73.5222020149'
p1052
aa(lp1053
S'trial 27 started at 74.4671061039'
p1054
aa(lp1055
S'trial 28 started at 75.4120290279'
p1056
aa(lp1057
S'trial 29 started at 76.3590810299'
p1058
aS'staircase updated from 0.600000 to 0.600000 after response 1 [key y, dir 1] at 77.044897'
p1059
aS'trial 29 key: y at time: 77.0449359417'
p1060
aS'trial 29 event y at 77.0449490547'
p1061
aa(lp1062
S'trial 30 started at 77.2981629372'
p1063
aa(lp1064
S'trial 31 started at 78.2509799004'
p1065
aa(lp1066
S'trial 32 started at 79.1916530132'
p1067
aa(lp1068
S'trial 33 started at 80.1369318962'
p1069
aa(lp1070
S'trial 34 started at 81.0782680511'
p1071
aa(lp1072
S'trial 35 started at 82.0307440758'
p1073
aa(lp1074
S'trial 36 started at 82.9697930813'
p1075
aS'staircase updated from -0.600000 to -0.500000 after response 1 [key b, dir -1] at 83.135784'
p1076
aS'trial 36 key: b at time: 83.1358220577'
p1077
aS'trial 36 event b at 83.1358349323'
p1078
aa(lp1079
S'trial 37 started at 83.926156044'
p1080
aa(lp1081
S'trial 38 started at 84.8625299931'
p1082
aa(lp1083
S'trial 39 started at 85.8107409477'
p1084
aa(lp1085
S'trial 40 started at 86.7484300137'
p1086
aa(lp1087
S'trial 41 started at 87.7039849758'
p1088
aa(lp1089
S'trial 42 started at 88.6379480362'
p1090
aS'staircase updated from 0.500000 to 0.500000 after response 1 [key y, dir 1] at 88.638226'
p1091
aS'trial 42 key: y at time: 88.638258934'
p1092
aS'trial 42 event y at 88.6382710934'
p1093
aa(lp1094
S'trial 43 started at 89.5869760513'
p1095
aa(lp1096
S'trial 44 started at 90.5293519497'
p1097
aa(lp1098
S'trial 45 started at 91.4726109505'
p1099
aa(lp1100
S'trial 46 started at 92.4172849655'
p1101
aa(lp1102
S'trial 47 started at 93.3618209362'
p1103
aS'staircase updated from 0.500000 to 0.500000 after response 1 [key y, dir 1] at 93.435496'
p1104
aS'trial 47 key: y at time: 93.4355349541'
p1105
aS'trial 47 event y at 93.4355480671'
p1106
aa(lp1107
S'trial 48 started at 94.3096408844'
p1108
aa(lp1109
S'trial 49 started at 95.2590999603'
p1110
aa(lp1111
S'trial 50 started at 96.196103096'
p1112
aa(lp1113
S'trial 51 started at 97.1467518806'
p1114
aa(lp1115
S'trial 52 started at 98.0863928795'
p1116
aa(lp1117
S'trial 53 started at 99.0365600586'
p1118
aa(lp1119
S'trial 54 started at 99.9757020473'
p1120
aa(lp1121
S'trial 55 started at 100.921585083'
p1122
aa(lp1123
S'trial 56 started at 101.866614103'
p1124
aS'staircase updated from -0.500000 to -0.400000 after response 1 [key b, dir -1] at 102.206045'
p1125
aS'trial 56 key: b at time: 102.20608592'
p1126
aS'trial 56 event b at 102.20609498'
p1127
aa(lp1128
S'trial 57 started at 102.815864086'
p1129
aa(lp1130
S'trial 58 started at 103.758166075'
p1131
aa(lp1132
S'trial 59 started at 104.703533888'
p1133
aS'staircase updated from -0.400000 to -0.400000 after response 1 [key b, dir -1] at 104.750969'
p1134
aS'trial 59 key: b at time: 104.751008987'
p1135
aS'trial 59 event b at 104.751023054'
p1136
aa(lp1137
S'trial 60 started at 105.645394087'
p1138
aa(lp1139
S'trial 61 started at 106.595445871'
p1140
aa(lp1141
S'trial 62 started at 107.538356066'
p1142
aa(lp1143
S'trial 63 started at 108.487837076'
p1144
aa(lp1145
S'trial 64 started at 109.427479029'
p1146
aS'staircase updated from 0.400000 to 0.400000 after response 1 [key y, dir 1] at 109.427828'
p1147
aS'trial 64 key: y at time: 109.427864075'
p1148
aS'trial 64 event y at 109.427875042'
p1149
aa(lp1150
S'trial 65 started at 110.377155066'
p1151
aa(lp1152
S'trial 66 started at 111.316973925'
p1153
aa(lp1154
S'trial 67 started at 112.259635925'
p1155
aa(lp1156
S'trial 68 started at 113.206216097'
p1157
aa(lp1158
S'trial 69 started at 114.155751944'
p1159
aa(lp1160
S'trial 70 started at 115.094099045'
p1161
aa(lp1162
S'trial 71 started at 116.039262056'
p1163
aa(lp1164
S'trial 72 started at 116.985681057'
p1165
aa(lp1166
S'trial 73 started at 117.936559916'
p1167
aS'staircase updated from 0.400000 to 0.300000 after response 1 [key y, dir 1] at 118.182936'
p1168
aS'trial 73 key: y at time: 118.182975054'
p1169
aS'trial 73 event y at 118.182987928'
p1170
aa(lp1171
S'trial 74 started at 118.874455929'
p1172
aa(lp1173
S'trial 75 started at 119.82522893'
p1174
aa(lp1175
S'trial 76 started at 120.765176058'
p1176
aa(lp1177
S'trial 77 started at 121.709922075'
p1178
aa(lp1179
S'trial 78 started at 122.655365944'
p1180
aa(lp1181
S'trial 79 started at 123.604234934'
p1182
aa(lp1183
S'trial 80 started at 124.544138908'
p1184
aa(lp1185
S'trial 81 started at 125.488555908'
p1186
aa(lp1187
S'trial 82 started at 126.434781075'
p1188
aa(lp1189
S'trial 83 started at 127.379087925'
p1190
aS'staircase updated from -0.300000 to -0.300000 after response 1 [key b, dir -1] at 127.390468'
p1191
aS'trial 83 key: b at time: 127.390510082'
p1192
aS'trial 83 event b at 127.390523911'
p1193
aa(lp1194
S'trial 84 started at 128.32446003'
p1195
aa(lp1196
S'trial 85 started at 129.268639088'
p1197
aa(lp1198
S'trial 86 started at 130.213481903'
p1199
aa(lp1200
S'trial 87 started at 131.162908077'
p1201
aS'staircase updated from 0.300000 to 0.300000 after response 1 [key y, dir 1] at 131.356255'
p1202
aS'trial 87 key: y at time: 131.356296062'
p1203
aS'trial 87 event y at 131.356308937'
p1204
aa(lp1205
S'trial 88 started at 132.103662014'
p1206
aa(lp1207
S'trial 89 started at 133.052728891'
p1208
aa(lp1209
S'trial 90 started at 133.991910934'
p1210
aa(lp1211
S'trial 91 started at 134.943202019'
p1212
aa(lp1213
S'trial 92 started at 135.882255077'
p1214
aa(lp1215
S'trial 93 started at 136.82734108'
p1216
aa(lp1217
S'trial 94 started at 137.772700071'
p1218
aS'staircase updated from 0.300000 to 0.200000 after response 1 [key y, dir 1] at 138.518447'
p1219
aS'trial 94 key: y at time: 138.51848793'
p1220
aS'trial 94 event y at 138.518496037'
p1221
aa(lp1222
S'trial 95 started at 138.715988874'
p1223
aa(lp1224
S'trial 96 started at 139.662344933'
p1225
aa(lp1226
S'trial 97 started at 140.606632948'
p1227
aa(lp1228
S'trial 98 started at 141.55152297'
p1229
aa(lp1230
S'trial 99 started at 142.501434088'
p1231
aa(lp1232
S'trial 100 started at 143.441675901'
p1233
aa(lp1234
S'trial 101 started at 144.39011693'
p1235
aa(lp1236
S'trial 102 started at 145.330962896'
p1237
aa(lp1238
S'trial 103 started at 146.283164978'
p1239
aa(lp1240
S'trial 104 started at 147.220520973'
p1241
aa(lp1242
S'trial 105 started at 148.166532993'
p1243
aS'staircase updated from 0.200000 to 0.200000 after response 1 [key y, dir 1] at 148.166829'
p1244
aS'trial 105 key: y at time: 148.166863918'
p1245
aS'trial 105 event y at 148.166874886'
p1246
aa(lp1247
S'trial 106 started at 149.109968901'
p1248
aa(lp1249
S'trial 107 started at 150.058835983'
p1250
aa(lp1251
S'trial 108 started at 151.000874043'
p1252
aa(lp1253
S'trial 109 started at 151.945322037'
p1254
aa(lp1255
S'trial 110 started at 152.890466928'
p1256
aa(lp1257
S'trial 111 started at 153.835861921'
p1258
aS'staircase updated from -0.200000 to -0.200000 after response 1 [key b, dir -1] at 153.836129'
p1259
aS'trial 111 key: b at time: 153.836164951'
p1260
aS'trial 111 event b at 153.836175919'
p1261
aa(lp1262
S'trial 112 started at 154.779706955'
p1263
aa(lp1264
S'trial 113 started at 155.733639002'
p1265
aa(lp1266
S'trial 114 started at 156.668790102'
p1267
aa(lp1268
S'trial 115 started at 157.619134903'
p1269
aa(lp1270
S'trial 116 started at 158.556536913'
p1271
aS'staircase updated from -0.200000 to -0.100000 after response 1 [key b, dir -1] at 158.556844'
p1272
aS'trial 116 key: b at time: 158.556879044'
p1273
aS'trial 116 event b at 158.556890011'
p1274
aa(lp1275
S'trial 117 started at 159.506822109'
p1276
aa(lp1277
S'trial 118 started at 160.449213028'
p1278
aa(lp1279
S'trial 119 started at 161.398195028'
p1280
aa(lp1281
S'trial 120 started at 162.338186026'
p1282
aa(lp1283
S'trial 121 started at 163.282586098'
p1284
aa(lp1285
S'trial 122 started at 164.229875088'
p1286
aa(lp1287
S'trial 123 started at 165.173440933'
p1288
aa(lp1289
S'trial 124 started at 166.118000031'
p1290
aa(lp1291
S'trial 125 started at 167.067434072'
p1292
aa(lp1293
S'trial 126 started at 168.007409096'
p1294
aS'staircase updated from -0.100000 to -0.100000 after response 1 [key b, dir -1] at 168.376877'
p1295
aS'trial 126 key: b at time: 168.376916885'
p1296
aS'trial 126 event b at 168.376930952'
p1297
aa(lp1298
S'trial 127 started at 168.961047888'
p1299
aa(lp1300
S'trial 128 started at 169.898024082'
p1301
aa(lp1302
S'trial 129 started at 170.840992928'
p1303
aa(lp1304
S'trial 130 started at 171.78687501'
p1305
aa(lp1306
S'trial 131 started at 172.731658936'
p1307
aa(lp1308
S'trial 132 started at 173.676625967'
p1309
aa(lp1310
S'trial 133 started at 174.621073008'
p1311
aa(lp1312
S'trial 134 started at 175.566478968'
p1313
aS'staircase updated from 0.100000 to 0.100000 after response 1 [key y, dir 1] at 175.934533'
p1314
aS'trial 134 key: y at time: 175.934573889'
p1315
aS'trial 134 event y at 175.934587955'
p1316
aa(lp1317
S'trial 135 started at 176.516264915'
p1318
aa(lp1319
S'trial 136 started at 177.457348108'
p1320
aa(lp1321
S'trial 137 started at 178.406459093'
p1322
aa(lp1323
S'trial 138 started at 179.344646931'
p1324
aa(lp1325
S'trial 139 started at 180.294291019'
p1326
aa(lp1327
S'trial 140 started at 181.23503089'
p1328
aa(lp1329
S'trial 141 started at 182.185388088'
p1330
aa(lp1331
S'trial 142 started at 183.124029875'
p1332
aa(lp1333
S'trial 143 started at 184.072994947'
p1334
aa(lp1335
S'trial 144 started at 185.014463902'
p1336
aS'staircase updated from 0.100000 to 0.000000 after response 1 [key y, dir 1] at 185.191482'
p1337
aS'trial 144 key: y at time: 185.191524982'
p1338
aS'trial 144 event y at 185.191539049'
p1339
aa(lp1340
S'trial 145 started at 185.963430882'
p1341
aa(lp1342
S'trial 146 started at 186.903424025'
p1343
aa(lp1344
S'trial 147 started at 187.854549885'
p1345
aa(lp1346
S'trial 148 started at 188.793934107'
p1347
aa(lp1348
S'trial 149 started at 189.738133907'
p1349
aa(lp1350
S'trial 150 started at 190.684092045'
p1351
aa(lp1352
S'trial 151 started at 191.632889986'
p1353
aa(lp1354
S'trial 152 started at 192.573261976'
p1355
aa(lp1356
S'trial 153 started at 193.517894983'
p1357
aa(lp1358
S'trial 154 started at 194.463035107'
p1359
aa(lp1360
S'trial 155 started at 195.40931201'
p1361
aa(lp1362
S'trial 156 started at 196.353206873'
p1363
aa(lp1364
S'trial 157 started at 197.297929049'
p1365
aa(lp1366
S'trial 158 started at 198.242611885'
p1367
aS'staircase updated from -0.100000 to -0.100000 after response 1 [key b, dir -1] at 198.964852'
p1368
aS'trial 158 key: b at time: 198.96489501'
p1369
aS'trial 158 event b at 198.964905024'
p1370
aa(lp1371
S'trial 159 started at 199.187750101'
p1372
aa(lp1373
S'trial 160 started at 200.13074398'
p1374
aa(lp1375
S'trial 161 started at 201.07586503'
p1376
aa(lp1377
S'trial 162 started at 202.022222042'
p1378
aa(lp1379
S'trial 163 started at 202.972042084'
p1380
aa(lp1381
S'trial 164 started at 203.910068035'
p1382
aS'staircase updated from 0.100000 to 0.100000 after response 1 [key y, dir 1] at 204.664609'
p1383
aS'trial 164 key: y at time: 204.66465497'
p1384
aS'trial 164 event y at 204.664665937'
p1385
aa(lp1386
S'trial 165 started at 204.855113029'
p1387
aa(lp1388
S'trial 166 started at 205.799798012'
p1389
aa(lp1390
S'trial 167 started at 206.746051073'
p1391
aa(lp1392
S'trial 168 started at 207.696230888'
p1393
aa(lp1394
S'trial 169 started at 208.635737896'
p1395
aa(lp1396
S'trial 170 started at 209.580524921'
p1397
aa(lp1398
S'trial 171 started at 210.524525881'
p1399
aS'staircase updated from 0.100000 to 0.020000 after response 1 [key y, dir 1] at 210.721731'
p1400
aS'trial 171 key: y at time: 210.721772909'
p1401
aS'trial 171 event y at 210.721786022'
p1402
aa(lp1403
S'trial 172 started at 211.470340014'
p1404
aa(lp1405
S'trial 173 started at 212.421389103'
p1406
aa(lp1407
S'trial 174 started at 213.359601021'
p1408
aa(lp1409
S'trial 175 started at 214.304996014'
p1410
aa(lp1411
S'trial 176 started at 215.24980092'
p1412
aa(lp1413
S'trial 177 started at 216.200176001'
p1414
aa(lp1415
S'trial 178 started at 217.14033103'
p1416
aa(lp1417
S'trial 179 started at 218.083467007'
p1418
aa(lp1419
S'trial 180 started at 219.029417992'
p1420
aa(lp1421
S'trial 181 started at 219.978779078'
p1422
aa(lp1423
S'trial 182 started at 220.92000103'
p1424
aa(lp1425
S'trial 183 started at 221.869240999'
p1426
aa(lp1427
S'trial 184 started at 222.808114052'
p1428
aS'staircase updated from 0.100000 to 0.100000 after response 1 [key y, dir 1] at 222.912030'
p1429
aS'trial 184 key: y at time: 222.912071943'
p1430
aS'trial 184 event y at 222.91208601'
p1431
aa(lp1432
S'trial 185 started at 223.752193928'
p1433
aa(lp1434
S'trial 186 started at 224.69767499'
p1435
aS'staircase updated from -0.100000 to -0.100000 after response 1 [key b, dir -1] at 224.928476'
p1436
aS'trial 186 key: b at time: 224.928515911'
p1437
aS'trial 186 event b at 224.928529978'
p1438
aa(lp1439
S'trial 187 started at 225.642023087'
p1440
aa(lp1441
S'trial 188 started at 226.587579966'
p1442
aa(lp1443
S'trial 189 started at 227.532126904'
p1444
aa(lp1445
S'trial 190 started at 228.477308989'
p1446
aa(lp1447
S'trial 191 started at 229.428344965'
p1448
aa(lp1449
S'trial 192 started at 230.367254972'
p1450
aa(lp1451
S'trial 193 started at 231.310905933'
p1452
aa(lp1453
S'trial 194 started at 232.256668091'
p1454
aa(lp1455
S'trial 195 started at 233.201771975'
p1456
aa(lp1457
S'trial 196 started at 234.147240877'
p1458
aS'staircase updated from -0.100000 to -0.036000 after response 1 [key b, dir -1] at 234.431896'
p1459
aS'trial 196 key: b at time: 234.431936026'
p1460
aS'trial 196 event b at 234.431945086'
p1461
aa(lp1462
S'trial 197 started at 235.09691'
p1463
aa(lp1464
S'trial 198 started at 236.036035061'
p1465
aa(lp1466
S'trial 199 started at 236.981283903'
p1467
aa(lp1468
S'trial 200 started at 237.925946951'
p1469
aa(lp1470
S'trial 201 started at 238.870786905'
p1471
aa(lp1472
S'trial 202 started at 239.815707922'
p1473
aS'staircase updated from 0.036000 to 0.036000 after response 1 [key y, dir 1] at 240.510077'
p1474
aS'trial 202 key: y at time: 240.510117054'
p1475
aS'trial 202 event y at 240.510129929'
p1476
aa(lp1477
S'trial 203 started at 240.760055065'
p1478
aa(lp1479
S'trial 204 started at 241.704869032'
p1480
aa(lp1481
S'trial 205 started at 242.650394917'
p1482
aa(lp1483
S'trial 206 started at 243.595541'
p1484
aS'staircase updated from 0.036000 to 0.036000 after response 1 [key y, dir 1] at 244.092869'
p1485
aS'trial 206 key: y at time: 244.092909098'
p1486
aS'trial 206 event y at 244.092922926'
p1487
aa(lp1488
S'trial 207 started at 244.543457985'
p1489
aa(lp1490
S'trial 208 started at 245.484260082'
p1491
aa(lp1492
S'trial 209 started at 246.428751945'
p1493
aa(lp1494
S'trial 210 started at 247.374176979'
p1495
aa(lp1496
S'trial 211 started at 248.317972898'
p1497
aa(lp1498
S'trial 212 started at 249.264168978'
p1499
aa(lp1500
S'trial 213 started at 250.213905096'
p1501
aa(lp1502
S'trial 214 started at 251.152134895'
p1503
aa(lp1504
S'trial 215 started at 252.099238873'
p1505
aS'staircase updated from 0.036000 to 0.000000 after response 1 [key y, dir 1] at 252.288001'
p1506
aS'trial 215 key: y at time: 252.288040876'
p1507
aS'trial 215 event y at 252.288049936'
p1508
aa(lp1509
S'trial 216 started at 253.042555094'
p1510
aa(lp1511
S'trial 217 started at 253.987987995'
p1512
aa(lp1513
S'trial 218 started at 254.932677031'
p1514
aa(lp1515
S'trial 219 started at 255.878128052'
p1516
aa(lp1517
S'trial 220 started at 256.823427916'
p1518
aa(lp1519
S'trial 221 started at 257.772934914'
p1520
aa(lp1521
S'trial 222 started at 258.711684942'
p1522
aa(lp1523
S'trial 223 started at 259.657516003'
p1524
aa(lp1525
S'trial 224 started at 260.607611895'
p1526
aa(lp1527
S'trial 225 started at 261.546545982'
p1528
aa(lp1529
S'trial 226 started at 262.491070032'
p1530
aS'staircase updated from 0.064000 to 0.064000 after response 1 [key y, dir 1] at 263.132139'
p1531
aS'trial 226 key: y at time: 263.132184029'
p1532
aS'trial 226 event y at 263.132196903'
p1533
aa(lp1534
S'trial 227 started at 263.437422037'
p1535
aa(lp1536
S'trial 228 started at 264.381603956'
p1537
aa(lp1538
S'trial 229 started at 265.332973003'
p1539
aa(lp1540
S'trial 230 started at 266.270140886'
p1541
aa(lp1542
S'trial 231 started at 267.215879917'
p1543
aa(lp1544
S'trial 232 started at 268.160505056'
p1545
aa(lp1546
S'trial 233 started at 269.109271049'
p1547
aa(lp1548
S'trial 234 started at 270.050350904'
p1549
aa(lp1550
S'trial 235 started at 270.999603033'
p1551
aS'staircase updated from -0.064000 to -0.064000 after response 1 [key b, dir -1] at 271.431308'
p1552
aS'trial 235 key: b at time: 271.431349039'
p1553
aS'trial 235 event b at 271.43136096'
p1554
aa(lp1555
S'trial 236 started at 271.939845085'
p1556
aa(lp1557
S'trial 237 started at 272.885529041'
p1558
aa(lp1559
S'trial 238 started at 273.829174042'
p1560
aa(lp1561
S'trial 239 started at 274.780036926'
p1562
aa(lp1563
S'trial 240 started at 275.719575882'
p1564
aa(lp1565
S'trial 241 started at 276.668174982'
p1566
aa(lp1567
S'trial 242 started at 277.608742952'
p1568
aa(lp1569
S'trial 243 started at 278.560612917'
p1570
aa(lp1571
S'trial 244 started at 279.499694109'
p1572
aa(lp1573
S'trial 245 started at 280.444161892'
p1574
aS'staircase updated from -0.064000 to -0.012800 after response 1 [key b, dir -1] at 281.079982'
p1575
aS'trial 245 key: b at time: 281.080022097'
p1576
aS'trial 245 event b at 281.080035925'
p1577
aa(lp1578
S'trial 246 started at 281.389008045'
p1579
aa(lp1580
S'trial 247 started at 282.333518982'
p1581
aa(lp1582
S'trial 248 started at 283.284540892'
p1583
aa(lp1584
S'trial 249 started at 284.223886013'
p1585
aa(lp1586
S'trial 250 started at 285.168646097'
p1587
aa(lp1588
S'trial 251 started at 286.118007898'
p1589
aa(lp1590
S'trial 252 started at 287.057810068'
p1591
aa(lp1592
S'trial 253 started at 288.003917933'
p1593
aa(lp1594
S'trial 254 started at 288.947760105'
p1595
aa(lp1596
S'trial 255 started at 289.896236897'
p1597
aa(lp1598
S'trial 256 started at 290.836148977'
p1599
aa(lp1600
S'trial 257 started at 291.78698802'
p1601
aa(lp1602
S'trial 258 started at 292.727072001'
p1603
aa(lp1604
S'trial 259 started at 293.675673008'
p1605
aS'staircase updated from 0.064000 to 0.064000 after response 1 [key y, dir 1] at 294.303369'
p1606
aS'trial 259 key: y at time: 294.303407907'
p1607
aS'trial 259 event y at 294.303421974'
p1608
aa(lp1609
S'trial 260 started at 294.615931988'
p1610
aa(lp1611
S'trial 261 started at 295.565882921'
p1612
aa(lp1613
S'trial 262 started at 296.505727053'
p1614
aa(lp1615
S'trial 263 started at 297.449897051'
p1616
aa(lp1617
S'trial 264 started at 298.395191908'
p1618
aS'staircase updated from -0.064000 to -0.064000 after response 1 [key b, dir -1] at 298.395574'
p1619
aS'trial 264 key: b at time: 298.395607948'
p1620
aS'trial 264 event b at 298.395618916'
p1621
aa(lp1622
S'trial 265 started at 299.345202923'
p1623
aa(lp1624
S'trial 266 started at 300.284591913'
p1625
aa(lp1626
S'trial 267 started at 301.236876011'
p1627
aa(lp1628
S'trial 268 started at 302.175170898'
p1629
aS'staircase updated from 0.064000 to 0.023040 after response 1 [key y, dir 1] at 302.402299'
p1630
aS'trial 268 key: y at time: 302.402338982'
p1631
aS'trial 268 event y at 302.402353048'
p1632
aa(lp1633
S'trial 269 started at 303.119610071'
p1634
aa(lp1635
S'trial 270 started at 304.065129995'
p1636
aa(lp1637
S'trial 271 started at 305.009834051'
p1638
aa(lp1639
S'trial 272 started at 305.955416918'
p1640
aa(lp1641
S'trial 273 started at 306.899004936'
p1642
aa(lp1643
S'trial 274 started at 307.844347'
p1644
aa(lp1645
S'trial 275 started at 308.789429903'
p1646
aa(lp1647
S'trial 276 started at 309.733918905'
p1648
aa(lp1649
S'trial 277 started at 310.678457022'
p1650
aa(lp1651
S'trial 278 started at 311.622466087'
p1652
aa(lp1653
S'trial 279 started at 312.568041086'
p1654
aa(lp1655
S'trial 280 started at 313.512639999'
p1656
aa(lp1657
S'trial 281 started at 314.464032888'
p1658
aa(lp1659
S'trial 282 started at 315.402846098'
p1660
aa(lp1661
S'trial 283 started at 316.347609997'
p1662
aa(lp1663
S'trial 284 started at 317.292295933'
p1664
aa(lp1665
S'trial 285 started at 318.237515926'
p1666
aS'staircase updated from -0.064000 to -0.064000 after response 1 [key b, dir -1] at 318.658723'
p1667
aS'trial 285 key: b at time: 318.658766031'
p1668
aS'trial 285 event b at 318.658778906'
p1669
aasS'trialResponses'
p1670
(lp1671
s.